
bomb：     文件格式 elf64-x86-64


Disassembly of section .init:

0000000000400bd8 <_init>:
  400bd8:	48 83 ec 08          	sub    $0x8,%rsp
  400bdc:	48 8b 05 15 24 20 00 	mov    0x202415(%rip),%rax        # 602ff8 <_DYNAMIC+0x1d8>
  400be3:	48 85 c0             	test   %rax,%rax
  400be6:	74 02                	je     400bea <_init+0x12>
  400be8:	ff d0                	callq  *%rax
  400bea:	48 83 c4 08          	add    $0x8,%rsp
  400bee:	c3                   	retq   

Disassembly of section .plt:

0000000000400bf0 <getenv@plt-0x10>:
  400bf0:	ff 35 12 24 20 00    	pushq  0x202412(%rip)        # 603008 <_GLOBAL_OFFSET_TABLE_+0x8>
  400bf6:	ff 25 14 24 20 00    	jmpq   *0x202414(%rip)        # 603010 <_GLOBAL_OFFSET_TABLE_+0x10>
  400bfc:	0f 1f 40 00          	nopl   0x0(%rax)

0000000000400c00 <getenv@plt>:
  400c00:	ff 25 12 24 20 00    	jmpq   *0x202412(%rip)        # 603018 <_GLOBAL_OFFSET_TABLE_+0x18>
  400c06:	68 00 00 00 00       	pushq  $0x0
  400c0b:	e9 e0 ff ff ff       	jmpq   400bf0 <_init+0x18>

0000000000400c10 <__errno_location@plt>:
  400c10:	ff 25 0a 24 20 00    	jmpq   *0x20240a(%rip)        # 603020 <_GLOBAL_OFFSET_TABLE_+0x20>
  400c16:	68 01 00 00 00       	pushq  $0x1
  400c1b:	e9 d0 ff ff ff       	jmpq   400bf0 <_init+0x18>

0000000000400c20 <strcpy@plt>:
  400c20:	ff 25 02 24 20 00    	jmpq   *0x202402(%rip)        # 603028 <_GLOBAL_OFFSET_TABLE_+0x28>
  400c26:	68 02 00 00 00       	pushq  $0x2
  400c2b:	e9 c0 ff ff ff       	jmpq   400bf0 <_init+0x18>

0000000000400c30 <puts@plt>:
  400c30:	ff 25 fa 23 20 00    	jmpq   *0x2023fa(%rip)        # 603030 <_GLOBAL_OFFSET_TABLE_+0x30>
  400c36:	68 03 00 00 00       	pushq  $0x3
  400c3b:	e9 b0 ff ff ff       	jmpq   400bf0 <_init+0x18>

0000000000400c40 <write@plt>:
  400c40:	ff 25 f2 23 20 00    	jmpq   *0x2023f2(%rip)        # 603038 <_GLOBAL_OFFSET_TABLE_+0x38>
  400c46:	68 04 00 00 00       	pushq  $0x4
  400c4b:	e9 a0 ff ff ff       	jmpq   400bf0 <_init+0x18>

0000000000400c50 <fclose@plt>:
  400c50:	ff 25 ea 23 20 00    	jmpq   *0x2023ea(%rip)        # 603040 <_GLOBAL_OFFSET_TABLE_+0x40>
  400c56:	68 05 00 00 00       	pushq  $0x5
  400c5b:	e9 90 ff ff ff       	jmpq   400bf0 <_init+0x18>

0000000000400c60 <strlen@plt>:
  400c60:	ff 25 e2 23 20 00    	jmpq   *0x2023e2(%rip)        # 603048 <_GLOBAL_OFFSET_TABLE_+0x48>
  400c66:	68 06 00 00 00       	pushq  $0x6
  400c6b:	e9 80 ff ff ff       	jmpq   400bf0 <_init+0x18>

0000000000400c70 <system@plt>:
  400c70:	ff 25 da 23 20 00    	jmpq   *0x2023da(%rip)        # 603050 <_GLOBAL_OFFSET_TABLE_+0x50>
  400c76:	68 07 00 00 00       	pushq  $0x7
  400c7b:	e9 70 ff ff ff       	jmpq   400bf0 <_init+0x18>

0000000000400c80 <htons@plt>:
  400c80:	ff 25 d2 23 20 00    	jmpq   *0x2023d2(%rip)        # 603058 <_GLOBAL_OFFSET_TABLE_+0x58>
  400c86:	68 08 00 00 00       	pushq  $0x8
  400c8b:	e9 60 ff ff ff       	jmpq   400bf0 <_init+0x18>

0000000000400c90 <printf@plt>:
  400c90:	ff 25 ca 23 20 00    	jmpq   *0x2023ca(%rip)        # 603060 <_GLOBAL_OFFSET_TABLE_+0x60>
  400c96:	68 09 00 00 00       	pushq  $0x9
  400c9b:	e9 50 ff ff ff       	jmpq   400bf0 <_init+0x18>

0000000000400ca0 <rewind@plt>:
  400ca0:	ff 25 c2 23 20 00    	jmpq   *0x2023c2(%rip)        # 603068 <_GLOBAL_OFFSET_TABLE_+0x68>
  400ca6:	68 0a 00 00 00       	pushq  $0xa
  400cab:	e9 40 ff ff ff       	jmpq   400bf0 <_init+0x18>

0000000000400cb0 <dup@plt>:
  400cb0:	ff 25 ba 23 20 00    	jmpq   *0x2023ba(%rip)        # 603070 <_GLOBAL_OFFSET_TABLE_+0x70>
  400cb6:	68 0b 00 00 00       	pushq  $0xb
  400cbb:	e9 30 ff ff ff       	jmpq   400bf0 <_init+0x18>

0000000000400cc0 <close@plt>:
  400cc0:	ff 25 b2 23 20 00    	jmpq   *0x2023b2(%rip)        # 603078 <_GLOBAL_OFFSET_TABLE_+0x78>
  400cc6:	68 0c 00 00 00       	pushq  $0xc
  400ccb:	e9 20 ff ff ff       	jmpq   400bf0 <_init+0x18>

0000000000400cd0 <fputc@plt>:
  400cd0:	ff 25 aa 23 20 00    	jmpq   *0x2023aa(%rip)        # 603080 <_GLOBAL_OFFSET_TABLE_+0x80>
  400cd6:	68 0d 00 00 00       	pushq  $0xd
  400cdb:	e9 10 ff ff ff       	jmpq   400bf0 <_init+0x18>

0000000000400ce0 <fgets@plt>:
  400ce0:	ff 25 a2 23 20 00    	jmpq   *0x2023a2(%rip)        # 603088 <_GLOBAL_OFFSET_TABLE_+0x88>
  400ce6:	68 0e 00 00 00       	pushq  $0xe
  400ceb:	e9 00 ff ff ff       	jmpq   400bf0 <_init+0x18>

0000000000400cf0 <tmpfile@plt>:
  400cf0:	ff 25 9a 23 20 00    	jmpq   *0x20239a(%rip)        # 603090 <_GLOBAL_OFFSET_TABLE_+0x90>
  400cf6:	68 0f 00 00 00       	pushq  $0xf
  400cfb:	e9 f0 fe ff ff       	jmpq   400bf0 <_init+0x18>

0000000000400d00 <signal@plt>:
  400d00:	ff 25 92 23 20 00    	jmpq   *0x202392(%rip)        # 603098 <_GLOBAL_OFFSET_TABLE_+0x98>
  400d06:	68 10 00 00 00       	pushq  $0x10
  400d0b:	e9 e0 fe ff ff       	jmpq   400bf0 <_init+0x18>

0000000000400d10 <gethostbyname@plt>:
  400d10:	ff 25 8a 23 20 00    	jmpq   *0x20238a(%rip)        # 6030a0 <_GLOBAL_OFFSET_TABLE_+0xa0>
  400d16:	68 11 00 00 00       	pushq  $0x11
  400d1b:	e9 d0 fe ff ff       	jmpq   400bf0 <_init+0x18>

0000000000400d20 <fprintf@plt>:
  400d20:	ff 25 82 23 20 00    	jmpq   *0x202382(%rip)        # 6030a8 <_GLOBAL_OFFSET_TABLE_+0xa8>
  400d26:	68 12 00 00 00       	pushq  $0x12
  400d2b:	e9 c0 fe ff ff       	jmpq   400bf0 <_init+0x18>

0000000000400d30 <inet_pton@plt>:
  400d30:	ff 25 7a 23 20 00    	jmpq   *0x20237a(%rip)        # 6030b0 <_GLOBAL_OFFSET_TABLE_+0xb0>
  400d36:	68 13 00 00 00       	pushq  $0x13
  400d3b:	e9 b0 fe ff ff       	jmpq   400bf0 <_init+0x18>

0000000000400d40 <fflush@plt>:
  400d40:	ff 25 72 23 20 00    	jmpq   *0x202372(%rip)        # 6030b8 <_GLOBAL_OFFSET_TABLE_+0xb8>
  400d46:	68 14 00 00 00       	pushq  $0x14
  400d4b:	e9 a0 fe ff ff       	jmpq   400bf0 <_init+0x18>

0000000000400d50 <__isoc99_sscanf@plt>:
  400d50:	ff 25 6a 23 20 00    	jmpq   *0x20236a(%rip)        # 6030c0 <_GLOBAL_OFFSET_TABLE_+0xc0>
  400d56:	68 15 00 00 00       	pushq  $0x15
  400d5b:	e9 90 fe ff ff       	jmpq   400bf0 <_init+0x18>

0000000000400d60 <bcopy@plt>:
  400d60:	ff 25 62 23 20 00    	jmpq   *0x202362(%rip)        # 6030c8 <_GLOBAL_OFFSET_TABLE_+0xc8>
  400d66:	68 16 00 00 00       	pushq  $0x16
  400d6b:	e9 80 fe ff ff       	jmpq   400bf0 <_init+0x18>

0000000000400d70 <cuserid@plt>:
  400d70:	ff 25 5a 23 20 00    	jmpq   *0x20235a(%rip)        # 6030d0 <_GLOBAL_OFFSET_TABLE_+0xd0>
  400d76:	68 17 00 00 00       	pushq  $0x17
  400d7b:	e9 70 fe ff ff       	jmpq   400bf0 <_init+0x18>

0000000000400d80 <fopen@plt>:
  400d80:	ff 25 52 23 20 00    	jmpq   *0x202352(%rip)        # 6030d8 <_GLOBAL_OFFSET_TABLE_+0xd8>
  400d86:	68 18 00 00 00       	pushq  $0x18
  400d8b:	e9 60 fe ff ff       	jmpq   400bf0 <_init+0x18>

0000000000400d90 <bzero@plt>:
  400d90:	ff 25 4a 23 20 00    	jmpq   *0x20234a(%rip)        # 6030e0 <_GLOBAL_OFFSET_TABLE_+0xe0>
  400d96:	68 19 00 00 00       	pushq  $0x19
  400d9b:	e9 50 fe ff ff       	jmpq   400bf0 <_init+0x18>

0000000000400da0 <strcat@plt>:
  400da0:	ff 25 42 23 20 00    	jmpq   *0x202342(%rip)        # 6030e8 <_GLOBAL_OFFSET_TABLE_+0xe8>
  400da6:	68 1a 00 00 00       	pushq  $0x1a
  400dab:	e9 40 fe ff ff       	jmpq   400bf0 <_init+0x18>

0000000000400db0 <sprintf@plt>:
  400db0:	ff 25 3a 23 20 00    	jmpq   *0x20233a(%rip)        # 6030f0 <_GLOBAL_OFFSET_TABLE_+0xf0>
  400db6:	68 1b 00 00 00       	pushq  $0x1b
  400dbb:	e9 30 fe ff ff       	jmpq   400bf0 <_init+0x18>

0000000000400dc0 <exit@plt>:
  400dc0:	ff 25 32 23 20 00    	jmpq   *0x202332(%rip)        # 6030f8 <_GLOBAL_OFFSET_TABLE_+0xf8>
  400dc6:	68 1c 00 00 00       	pushq  $0x1c
  400dcb:	e9 20 fe ff ff       	jmpq   400bf0 <_init+0x18>

0000000000400dd0 <connect@plt>:
  400dd0:	ff 25 2a 23 20 00    	jmpq   *0x20232a(%rip)        # 603100 <_GLOBAL_OFFSET_TABLE_+0x100>
  400dd6:	68 1d 00 00 00       	pushq  $0x1d
  400ddb:	e9 10 fe ff ff       	jmpq   400bf0 <_init+0x18>

0000000000400de0 <fwrite@plt>:
  400de0:	ff 25 22 23 20 00    	jmpq   *0x202322(%rip)        # 603108 <_GLOBAL_OFFSET_TABLE_+0x108>
  400de6:	68 1e 00 00 00       	pushq  $0x1e
  400deb:	e9 00 fe ff ff       	jmpq   400bf0 <_init+0x18>

0000000000400df0 <sleep@plt>:
  400df0:	ff 25 1a 23 20 00    	jmpq   *0x20231a(%rip)        # 603110 <_GLOBAL_OFFSET_TABLE_+0x110>
  400df6:	68 1f 00 00 00       	pushq  $0x1f
  400dfb:	e9 f0 fd ff ff       	jmpq   400bf0 <_init+0x18>

0000000000400e00 <__ctype_b_loc@plt>:
  400e00:	ff 25 12 23 20 00    	jmpq   *0x202312(%rip)        # 603118 <_GLOBAL_OFFSET_TABLE_+0x118>
  400e06:	68 20 00 00 00       	pushq  $0x20
  400e0b:	e9 e0 fd ff ff       	jmpq   400bf0 <_init+0x18>

0000000000400e10 <socket@plt>:
  400e10:	ff 25 0a 23 20 00    	jmpq   *0x20230a(%rip)        # 603120 <_GLOBAL_OFFSET_TABLE_+0x120>
  400e16:	68 21 00 00 00       	pushq  $0x21
  400e1b:	e9 d0 fd ff ff       	jmpq   400bf0 <_init+0x18>

Disassembly of section .text:

0000000000400e20 <_start>:
  400e20:	31 ed                	xor    %ebp,%ebp
  400e22:	49 89 d1             	mov    %rdx,%r9
  400e25:	5e                   	pop    %rsi
  400e26:	48 89 e2             	mov    %rsp,%rdx
  400e29:	48 83 e4 f0          	and    $0xfffffffffffffff0,%rsp
  400e2d:	50                   	push   %rax
  400e2e:	54                   	push   %rsp
  400e2f:	49 c7 c0 10 1f 40 00 	mov    $0x401f10,%r8
  400e36:	48 c7 c1 a0 1e 40 00 	mov    $0x401ea0,%rcx
  400e3d:	48 c7 c7 16 0f 40 00 	mov    $0x400f16,%rdi
  400e44:	ff 15 a6 21 20 00    	callq  *0x2021a6(%rip)        # 602ff0 <_DYNAMIC+0x1d0>
  400e4a:	f4                   	hlt    
  400e4b:	0f 1f 44 00 00       	nopl   0x0(%rax,%rax,1)

0000000000400e50 <deregister_tm_clones>:
  400e50:	b8 c7 35 60 00       	mov    $0x6035c7,%eax
  400e55:	55                   	push   %rbp
  400e56:	48 2d c0 35 60 00    	sub    $0x6035c0,%rax
  400e5c:	48 83 f8 0e          	cmp    $0xe,%rax
  400e60:	48 89 e5             	mov    %rsp,%rbp
  400e63:	76 1b                	jbe    400e80 <deregister_tm_clones+0x30>
  400e65:	b8 00 00 00 00       	mov    $0x0,%eax
  400e6a:	48 85 c0             	test   %rax,%rax
  400e6d:	74 11                	je     400e80 <deregister_tm_clones+0x30>
  400e6f:	5d                   	pop    %rbp
  400e70:	bf c0 35 60 00       	mov    $0x6035c0,%edi
  400e75:	ff e0                	jmpq   *%rax
  400e77:	66 0f 1f 84 00 00 00 	nopw   0x0(%rax,%rax,1)
  400e7e:	00 00 
  400e80:	5d                   	pop    %rbp
  400e81:	c3                   	retq   
  400e82:	0f 1f 40 00          	nopl   0x0(%rax)
  400e86:	66 2e 0f 1f 84 00 00 	nopw   %cs:0x0(%rax,%rax,1)
  400e8d:	00 00 00 

0000000000400e90 <register_tm_clones>:
  400e90:	be c0 35 60 00       	mov    $0x6035c0,%esi
  400e95:	55                   	push   %rbp
  400e96:	48 81 ee c0 35 60 00 	sub    $0x6035c0,%rsi
  400e9d:	48 c1 fe 03          	sar    $0x3,%rsi
  400ea1:	48 89 e5             	mov    %rsp,%rbp
  400ea4:	48 89 f0             	mov    %rsi,%rax
  400ea7:	48 c1 e8 3f          	shr    $0x3f,%rax
  400eab:	48 01 c6             	add    %rax,%rsi
  400eae:	48 d1 fe             	sar    %rsi
  400eb1:	74 15                	je     400ec8 <register_tm_clones+0x38>
  400eb3:	b8 00 00 00 00       	mov    $0x0,%eax
  400eb8:	48 85 c0             	test   %rax,%rax
  400ebb:	74 0b                	je     400ec8 <register_tm_clones+0x38>
  400ebd:	5d                   	pop    %rbp
  400ebe:	bf c0 35 60 00       	mov    $0x6035c0,%edi
  400ec3:	ff e0                	jmpq   *%rax
  400ec5:	0f 1f 00             	nopl   (%rax)
  400ec8:	5d                   	pop    %rbp
  400ec9:	c3                   	retq   
  400eca:	66 0f 1f 44 00 00    	nopw   0x0(%rax,%rax,1)

0000000000400ed0 <__do_global_dtors_aux>:
  400ed0:	80 3d 01 27 20 00 00 	cmpb   $0x0,0x202701(%rip)        # 6035d8 <completed.6963>
  400ed7:	75 11                	jne    400eea <__do_global_dtors_aux+0x1a>
  400ed9:	55                   	push   %rbp
  400eda:	48 89 e5             	mov    %rsp,%rbp
  400edd:	e8 6e ff ff ff       	callq  400e50 <deregister_tm_clones>
  400ee2:	5d                   	pop    %rbp
  400ee3:	c6 05 ee 26 20 00 01 	movb   $0x1,0x2026ee(%rip)        # 6035d8 <completed.6963>
  400eea:	f3 c3                	repz retq 
  400eec:	0f 1f 40 00          	nopl   0x0(%rax)

0000000000400ef0 <frame_dummy>:
  400ef0:	bf 18 2e 60 00       	mov    $0x602e18,%edi
  400ef5:	48 83 3f 00          	cmpq   $0x0,(%rdi)
  400ef9:	75 05                	jne    400f00 <frame_dummy+0x10>
  400efb:	eb 93                	jmp    400e90 <register_tm_clones>
  400efd:	0f 1f 00             	nopl   (%rax)
  400f00:	b8 00 00 00 00       	mov    $0x0,%eax
  400f05:	48 85 c0             	test   %rax,%rax
  400f08:	74 f1                	je     400efb <frame_dummy+0xb>
  400f0a:	55                   	push   %rbp
  400f0b:	48 89 e5             	mov    %rsp,%rbp
  400f0e:	ff d0                	callq  *%rax
  400f10:	5d                   	pop    %rbp
  400f11:	e9 7a ff ff ff       	jmpq   400e90 <register_tm_clones>

0000000000400f16 <main>:
  400f16:	55                   	push   %rbp
  400f17:	48 89 e5             	mov    %rsp,%rbp
  400f1a:	48 83 ec 20          	sub    $0x20,%rsp
  400f1e:	89 7d ec             	mov    %edi,-0x14(%rbp)
  400f21:	48 89 75 e0          	mov    %rsi,-0x20(%rbp)
  400f25:	83 7d ec 01          	cmpl   $0x1,-0x14(%rbp)
  400f29:	75 13                	jne    400f3e <main+0x28>
  400f2b:	48 8b 05 9e 26 20 00 	mov    0x20269e(%rip),%rax        # 6035d0 <stdin@@GLIBC_2.2.5>
  400f32:	48 89 05 a7 26 20 00 	mov    %rax,0x2026a7(%rip)        # 6035e0 <infile>
  400f39:	e9 88 00 00 00       	jmpq   400fc6 <main+0xb0>
  400f3e:	83 7d ec 02          	cmpl   $0x2,-0x14(%rbp)
  400f42:	75 5d                	jne    400fa1 <main+0x8b>
  400f44:	48 8b 45 e0          	mov    -0x20(%rbp),%rax
  400f48:	48 83 c0 08          	add    $0x8,%rax
  400f4c:	48 8b 00             	mov    (%rax),%rax
  400f4f:	48 8d 35 d2 0f 00 00 	lea    0xfd2(%rip),%rsi        # 401f28 <_IO_stdin_used+0x8>
  400f56:	48 89 c7             	mov    %rax,%rdi
  400f59:	e8 22 fe ff ff       	callq  400d80 <fopen@plt>
  400f5e:	48 89 05 7b 26 20 00 	mov    %rax,0x20267b(%rip)        # 6035e0 <infile>
  400f65:	48 8b 05 74 26 20 00 	mov    0x202674(%rip),%rax        # 6035e0 <infile>
  400f6c:	48 85 c0             	test   %rax,%rax
  400f6f:	75 55                	jne    400fc6 <main+0xb0>
  400f71:	48 8b 45 e0          	mov    -0x20(%rbp),%rax
  400f75:	48 83 c0 08          	add    $0x8,%rax
  400f79:	48 8b 10             	mov    (%rax),%rdx
  400f7c:	48 8b 45 e0          	mov    -0x20(%rbp),%rax
  400f80:	48 8b 00             	mov    (%rax),%rax
  400f83:	48 89 c6             	mov    %rax,%rsi
  400f86:	48 8d 3d 9d 0f 00 00 	lea    0xf9d(%rip),%rdi        # 401f2a <_IO_stdin_used+0xa>
  400f8d:	b8 00 00 00 00       	mov    $0x0,%eax
  400f92:	e8 f9 fc ff ff       	callq  400c90 <printf@plt>
  400f97:	bf 08 00 00 00       	mov    $0x8,%edi
  400f9c:	e8 1f fe ff ff       	callq  400dc0 <exit@plt>
  400fa1:	48 8b 45 e0          	mov    -0x20(%rbp),%rax
  400fa5:	48 8b 00             	mov    (%rax),%rax
  400fa8:	48 89 c6             	mov    %rax,%rsi
  400fab:	48 8d 3d 95 0f 00 00 	lea    0xf95(%rip),%rdi        # 401f47 <_IO_stdin_used+0x27>
  400fb2:	b8 00 00 00 00       	mov    $0x0,%eax
  400fb7:	e8 d4 fc ff ff       	callq  400c90 <printf@plt>
  400fbc:	bf 08 00 00 00       	mov    $0x8,%edi
  400fc1:	e8 fa fd ff ff       	callq  400dc0 <exit@plt>
  400fc6:	e8 0d 05 00 00       	callq  4014d8 <initialize_bomb>
  400fcb:	48 8d 3d 96 0f 00 00 	lea    0xf96(%rip),%rdi        # 401f68 <_IO_stdin_used+0x48>
  400fd2:	e8 59 fc ff ff       	callq  400c30 <puts@plt>
  400fd7:	48 8d 3d ca 0f 00 00 	lea    0xfca(%rip),%rdi        # 401fa8 <_IO_stdin_used+0x88>
  400fde:	e8 4d fc ff ff       	callq  400c30 <puts@plt>
  400fe3:	e8 d8 05 00 00       	callq  4015c0 <read_line>
  400fe8:	48 89 45 f8          	mov    %rax,-0x8(%rbp)
  400fec:	48 8b 45 f8          	mov    -0x8(%rbp),%rax
  400ff0:	48 89 c7             	mov    %rax,%rdi
  400ff3:	e8 58 00 00 00       	callq  401050 <phase_1>
  400ff8:	e8 da 0d 00 00       	callq  401dd7 <phase_defused>
  400ffd:	48 8d 3d d4 0f 00 00 	lea    0xfd4(%rip),%rdi        # 401fd8 <_IO_stdin_used+0xb8>
  401004:	e8 27 fc ff ff       	callq  400c30 <puts@plt>
  401009:	e8 b2 05 00 00       	callq  4015c0 <read_line>
  40100e:	48 89 45 f8          	mov    %rax,-0x8(%rbp)
  401012:	48 8b 45 f8          	mov    -0x8(%rbp),%rax
  401016:	48 89 c7             	mov    %rax,%rdi
  401019:	e8 5d 00 00 00       	callq  40107b <phase_2>
  40101e:	e8 b4 0d 00 00       	callq  401dd7 <phase_defused>
  401023:	48 8d 3d d7 0f 00 00 	lea    0xfd7(%rip),%rdi        # 402001 <_IO_stdin_used+0xe1>
  40102a:	e8 01 fc ff ff       	callq  400c30 <puts@plt>
  40102f:	e8 8c 05 00 00       	callq  4015c0 <read_line>
  401034:	48 89 45 f8          	mov    %rax,-0x8(%rbp)
  401038:	48 8b 45 f8          	mov    -0x8(%rbp),%rax
  40103c:	48 89 c7             	mov    %rax,%rdi
  40103f:	e8 a3 00 00 00       	callq  4010e7 <phase_3>
  401044:	e8 8e 0d 00 00       	callq  401dd7 <phase_defused>
  401049:	b8 00 00 00 00       	mov    $0x0,%eax
  40104e:	c9                   	leaveq 
  40104f:	c3                   	retq   

0000000000401050 <phase_1>:
  401050:	55                   	push   %rbp
  401051:	48 89 e5             	mov    %rsp,%rbp
  401054:	48 83 ec 10          	sub    $0x10,%rsp
  401058:	48 89 7d f8          	mov    %rdi,-0x8(%rbp)
  40105c:	48 8b 45 f8          	mov    -0x8(%rbp),%rax
  401060:	48 8d 35 b9 0f 00 00 	lea    0xfb9(%rip),%rsi        # 402020 <_IO_stdin_used+0x100>
  401067:	48 89 c7             	mov    %rax,%rdi
  40106a:	e8 f3 02 00 00       	callq  401362 <strings_not_equal>
  40106f:	85 c0                	test   %eax,%eax
  401071:	74 05                	je     401078 <phase_1+0x28>
  401073:	e8 23 0d 00 00       	callq  401d9b <explode_bomb>
  401078:	90                   	nop
  401079:	c9                   	leaveq 
  40107a:	c3                   	retq   

000000000040107b <phase_2>:
  40107b:	55                   	push   %rbp
  40107c:	48 89 e5             	mov    %rsp,%rbp
  40107f:	48 83 ec 30          	sub    $0x30,%rsp
  401083:	48 89 7d d8          	mov    %rdi,-0x28(%rbp)
  401087:	48 8d 55 e0          	lea    -0x20(%rbp),%rdx
  40108b:	48 8b 45 d8          	mov    -0x28(%rbp),%rax
  40108f:	48 89 d6             	mov    %rdx,%rsi
  401092:	48 89 c7             	mov    %rax,%rdi
  401095:	e8 2b 02 00 00       	callq  4012c5 <read_six_numbers>
  40109a:	8b 45 e0             	mov    -0x20(%rbp),%eax
  40109d:	83 f8 01             	cmp    $0x1,%eax
  4010a0:	74 05                	je     4010a7 <phase_2+0x2c>
  4010a2:	e8 f4 0c 00 00       	callq  401d9b <explode_bomb>
  4010a7:	c7 45 fc 01 00 00 00 	movl   $0x1,-0x4(%rbp)
  4010ae:	eb 2e                	jmp    4010de <phase_2+0x63>
  4010b0:	8b 45 fc             	mov    -0x4(%rbp),%eax
  4010b3:	48 98                	cltq   
  4010b5:	8b 54 85 e0          	mov    -0x20(%rbp,%rax,4),%edx
  4010b9:	8b 45 fc             	mov    -0x4(%rbp),%eax
  4010bc:	83 e8 01             	sub    $0x1,%eax
  4010bf:	48 98                	cltq   
  4010c1:	8b 44 85 e0          	mov    -0x20(%rbp,%rax,4),%eax
  4010c5:	8b 4d fc             	mov    -0x4(%rbp),%ecx
  4010c8:	83 c1 01             	add    $0x1,%ecx
  4010cb:	0f af c1             	imul   %ecx,%eax
  4010ce:	83 e8 01             	sub    $0x1,%eax
  4010d1:	39 c2                	cmp    %eax,%edx
  4010d3:	74 05                	je     4010da <phase_2+0x5f>
  4010d5:	e8 c1 0c 00 00       	callq  401d9b <explode_bomb>
  4010da:	83 45 fc 01          	addl   $0x1,-0x4(%rbp)
  4010de:	83 7d fc 05          	cmpl   $0x5,-0x4(%rbp)
  4010e2:	7e cc                	jle    4010b0 <phase_2+0x35>
  4010e4:	90                   	nop
  4010e5:	c9                   	leaveq 
  4010e6:	c3                   	retq   

00000000004010e7 <phase_3>:
  4010e7:	55                   	push   %rbp
  4010e8:	48 89 e5             	mov    %rsp,%rbp
  4010eb:	48 83 ec 20          	sub    $0x20,%rsp
  4010ef:	48 89 7d e8          	mov    %rdi,-0x18(%rbp)
  4010f3:	c7 45 fc 00 00 00 00 	movl   $0x0,-0x4(%rbp)
  4010fa:	c7 45 f8 00 00 00 00 	movl   $0x0,-0x8(%rbp)
  401101:	48 8d 4d f0          	lea    -0x10(%rbp),%rcx
  401105:	48 8d 55 f4          	lea    -0xc(%rbp),%rdx
  401109:	48 8b 45 e8          	mov    -0x18(%rbp),%rax
  40110d:	48 8d 35 4a 0f 00 00 	lea    0xf4a(%rip),%rsi        # 40205e <_IO_stdin_used+0x13e>
  401114:	48 89 c7             	mov    %rax,%rdi
  401117:	b8 00 00 00 00       	mov    $0x0,%eax
  40111c:	e8 2f fc ff ff       	callq  400d50 <__isoc99_sscanf@plt>
  401121:	89 45 f8             	mov    %eax,-0x8(%rbp)
  401124:	83 7d f8 01          	cmpl   $0x1,-0x8(%rbp)
  401128:	7f 05                	jg     40112f <phase_3+0x48>
  40112a:	e8 6c 0c 00 00       	callq  401d9b <explode_bomb>
  40112f:	8b 45 f4             	mov    -0xc(%rbp),%eax
  401132:	83 f8 07             	cmp    $0x7,%eax
  401135:	77 5d                	ja     401194 <phase_3+0xad>
  401137:	89 c0                	mov    %eax,%eax
  401139:	48 8d 14 85 00 00 00 	lea    0x0(,%rax,4),%rdx
  401140:	00 
  401141:	48 8d 05 1c 0f 00 00 	lea    0xf1c(%rip),%rax        # 402064 <_IO_stdin_used+0x144>
  401148:	8b 04 02             	mov    (%rdx,%rax,1),%eax
  40114b:	48 63 d0             	movslq %eax,%rdx
  40114e:	48 8d 05 0f 0f 00 00 	lea    0xf0f(%rip),%rax        # 402064 <_IO_stdin_used+0x144>
  401155:	48 01 d0             	add    %rdx,%rax
  401158:	ff e0                	jmpq   *%rax
  40115a:	81 45 fc 1b 03 00 00 	addl   $0x31b,-0x4(%rbp)
  401161:	81 6d fc 71 01 00 00 	subl   $0x171,-0x4(%rbp)
  401168:	81 45 fc 16 01 00 00 	addl   $0x116,-0x4(%rbp)
  40116f:	81 6d fc 01 03 00 00 	subl   $0x301,-0x4(%rbp)
  401176:	81 45 fc 6f 02 00 00 	addl   $0x26f,-0x4(%rbp)
  40117d:	81 6d fc e9 00 00 00 	subl   $0xe9,-0x4(%rbp)
  401184:	81 45 fc e9 00 00 00 	addl   $0xe9,-0x4(%rbp)
  40118b:	81 6d fc ea 01 00 00 	subl   $0x1ea,-0x4(%rbp)
  401192:	eb 05                	jmp    401199 <phase_3+0xb2>
  401194:	e8 02 0c 00 00       	callq  401d9b <explode_bomb>
  401199:	8b 45 f4             	mov    -0xc(%rbp),%eax
  40119c:	83 f8 05             	cmp    $0x5,%eax
  40119f:	7f 08                	jg     4011a9 <phase_3+0xc2>
  4011a1:	8b 45 f0             	mov    -0x10(%rbp),%eax
  4011a4:	39 45 fc             	cmp    %eax,-0x4(%rbp)
  4011a7:	74 05                	je     4011ae <phase_3+0xc7>
  4011a9:	e8 ed 0b 00 00       	callq  401d9b <explode_bomb>
  4011ae:	90                   	nop
  4011af:	c9                   	leaveq 
  4011b0:	c3                   	retq   

00000000004011b1 <secret_phase>:
  4011b1:	55                   	push   %rbp
  4011b2:	48 89 e5             	mov    %rsp,%rbp
  4011b5:	48 83 ec 20          	sub    $0x20,%rsp
  4011b9:	e8 02 04 00 00       	callq  4015c0 <read_line>
  4011be:	48 89 45 f0          	mov    %rax,-0x10(%rbp)
  4011c2:	48 8b 45 f0          	mov    -0x10(%rbp),%rax
  4011c6:	48 89 c7             	mov    %rax,%rdi
  4011c9:	e8 62 01 00 00       	callq  401330 <string_length>
  4011ce:	89 45 ec             	mov    %eax,-0x14(%rbp)
  4011d1:	83 7d ec 06          	cmpl   $0x6,-0x14(%rbp)
  4011d5:	74 05                	je     4011dc <secret_phase+0x2b>
  4011d7:	e8 bf 0b 00 00       	callq  401d9b <explode_bomb>
  4011dc:	c7 45 f8 00 00 00 00 	movl   $0x0,-0x8(%rbp)
  4011e3:	c7 45 fc 00 00 00 00 	movl   $0x0,-0x4(%rbp)
  4011ea:	eb 31                	jmp    40121d <secret_phase+0x6c>
  4011ec:	8b 45 fc             	mov    -0x4(%rbp),%eax
  4011ef:	48 63 d0             	movslq %eax,%rdx
  4011f2:	48 8b 45 f0          	mov    -0x10(%rbp),%rax
  4011f6:	48 01 d0             	add    %rdx,%rax
  4011f9:	0f b6 00             	movzbl (%rax),%eax
  4011fc:	0f be c0             	movsbl %al,%eax
  4011ff:	83 e0 0f             	and    $0xf,%eax
  401202:	48 98                	cltq   
  401204:	48 8d 14 85 00 00 00 	lea    0x0(,%rax,4),%rdx
  40120b:	00 
  40120c:	48 8d 05 6d 23 20 00 	lea    0x20236d(%rip),%rax        # 603580 <array.2937>
  401213:	8b 04 02             	mov    (%rdx,%rax,1),%eax
  401216:	01 45 f8             	add    %eax,-0x8(%rbp)
  401219:	83 45 fc 01          	addl   $0x1,-0x4(%rbp)
  40121d:	83 7d fc 05          	cmpl   $0x5,-0x4(%rbp)
  401221:	7e c9                	jle    4011ec <secret_phase+0x3b>
  401223:	83 7d f8 4a          	cmpl   $0x4a,-0x8(%rbp)
  401227:	74 05                	je     40122e <secret_phase+0x7d>
  401229:	e8 6d 0b 00 00       	callq  401d9b <explode_bomb>
  40122e:	e8 a4 0b 00 00       	callq  401dd7 <phase_defused>
  401233:	90                   	nop
  401234:	c9                   	leaveq 
  401235:	c3                   	retq   

0000000000401236 <sig_handler>:
  401236:	55                   	push   %rbp
  401237:	48 89 e5             	mov    %rsp,%rbp
  40123a:	48 83 ec 10          	sub    $0x10,%rsp
  40123e:	89 7d fc             	mov    %edi,-0x4(%rbp)
  401241:	48 8d 3d 40 0e 00 00 	lea    0xe40(%rip),%rdi        # 402088 <_IO_stdin_used+0x168>
  401248:	e8 e3 f9 ff ff       	callq  400c30 <puts@plt>
  40124d:	bf 03 00 00 00       	mov    $0x3,%edi
  401252:	e8 99 fb ff ff       	callq  400df0 <sleep@plt>
  401257:	48 8d 3d 62 0e 00 00 	lea    0xe62(%rip),%rdi        # 4020c0 <_IO_stdin_used+0x1a0>
  40125e:	b8 00 00 00 00       	mov    $0x0,%eax
  401263:	e8 28 fa ff ff       	callq  400c90 <printf@plt>
  401268:	48 8b 05 51 23 20 00 	mov    0x202351(%rip),%rax        # 6035c0 <__TMC_END__>
  40126f:	48 89 c7             	mov    %rax,%rdi
  401272:	e8 c9 fa ff ff       	callq  400d40 <fflush@plt>
  401277:	bf 01 00 00 00       	mov    $0x1,%edi
  40127c:	e8 6f fb ff ff       	callq  400df0 <sleep@plt>
  401281:	48 8d 3d 40 0e 00 00 	lea    0xe40(%rip),%rdi        # 4020c8 <_IO_stdin_used+0x1a8>
  401288:	e8 a3 f9 ff ff       	callq  400c30 <puts@plt>
  40128d:	bf 10 00 00 00       	mov    $0x10,%edi
  401292:	e8 29 fb ff ff       	callq  400dc0 <exit@plt>

0000000000401297 <invalid_phase>:
  401297:	55                   	push   %rbp
  401298:	48 89 e5             	mov    %rsp,%rbp
  40129b:	48 83 ec 10          	sub    $0x10,%rsp
  40129f:	48 89 7d f8          	mov    %rdi,-0x8(%rbp)
  4012a3:	48 8b 45 f8          	mov    -0x8(%rbp),%rax
  4012a7:	48 89 c6             	mov    %rax,%rsi
  4012aa:	48 8d 3d 1f 0e 00 00 	lea    0xe1f(%rip),%rdi        # 4020d0 <_IO_stdin_used+0x1b0>
  4012b1:	b8 00 00 00 00       	mov    $0x0,%eax
  4012b6:	e8 d5 f9 ff ff       	callq  400c90 <printf@plt>
  4012bb:	bf 08 00 00 00       	mov    $0x8,%edi
  4012c0:	e8 fb fa ff ff       	callq  400dc0 <exit@plt>

00000000004012c5 <read_six_numbers>:
  4012c5:	55                   	push   %rbp
  4012c6:	48 89 e5             	mov    %rsp,%rbp
  4012c9:	48 83 ec 20          	sub    $0x20,%rsp
  4012cd:	48 89 7d e8          	mov    %rdi,-0x18(%rbp)
  4012d1:	48 89 75 e0          	mov    %rsi,-0x20(%rbp)
  4012d5:	48 8b 45 e0          	mov    -0x20(%rbp),%rax
  4012d9:	48 8d 78 14          	lea    0x14(%rax),%rdi
  4012dd:	48 8b 45 e0          	mov    -0x20(%rbp),%rax
  4012e1:	48 8d 70 10          	lea    0x10(%rax),%rsi
  4012e5:	48 8b 45 e0          	mov    -0x20(%rbp),%rax
  4012e9:	4c 8d 48 0c          	lea    0xc(%rax),%r9
  4012ed:	48 8b 45 e0          	mov    -0x20(%rbp),%rax
  4012f1:	4c 8d 40 08          	lea    0x8(%rax),%r8
  4012f5:	48 8b 45 e0          	mov    -0x20(%rbp),%rax
  4012f9:	48 8d 48 04          	lea    0x4(%rax),%rcx
  4012fd:	48 8b 55 e0          	mov    -0x20(%rbp),%rdx
  401301:	48 8b 45 e8          	mov    -0x18(%rbp),%rax
  401305:	57                   	push   %rdi
  401306:	56                   	push   %rsi
  401307:	48 8d 35 d3 0d 00 00 	lea    0xdd3(%rip),%rsi        # 4020e1 <_IO_stdin_used+0x1c1>
  40130e:	48 89 c7             	mov    %rax,%rdi
  401311:	b8 00 00 00 00       	mov    $0x0,%eax
  401316:	e8 35 fa ff ff       	callq  400d50 <__isoc99_sscanf@plt>
  40131b:	48 83 c4 10          	add    $0x10,%rsp
  40131f:	89 45 fc             	mov    %eax,-0x4(%rbp)
  401322:	83 7d fc 05          	cmpl   $0x5,-0x4(%rbp)
  401326:	7f 05                	jg     40132d <read_six_numbers+0x68>
  401328:	e8 6e 0a 00 00       	callq  401d9b <explode_bomb>
  40132d:	90                   	nop
  40132e:	c9                   	leaveq 
  40132f:	c3                   	retq   

0000000000401330 <string_length>:
  401330:	55                   	push   %rbp
  401331:	48 89 e5             	mov    %rsp,%rbp
  401334:	48 89 7d e8          	mov    %rdi,-0x18(%rbp)
  401338:	48 8b 45 e8          	mov    -0x18(%rbp),%rax
  40133c:	48 89 45 f0          	mov    %rax,-0x10(%rbp)
  401340:	c7 45 fc 00 00 00 00 	movl   $0x0,-0x4(%rbp)
  401347:	eb 09                	jmp    401352 <string_length+0x22>
  401349:	48 83 45 f0 01       	addq   $0x1,-0x10(%rbp)
  40134e:	83 45 fc 01          	addl   $0x1,-0x4(%rbp)
  401352:	48 8b 45 f0          	mov    -0x10(%rbp),%rax
  401356:	0f b6 00             	movzbl (%rax),%eax
  401359:	84 c0                	test   %al,%al
  40135b:	75 ec                	jne    401349 <string_length+0x19>
  40135d:	8b 45 fc             	mov    -0x4(%rbp),%eax
  401360:	5d                   	pop    %rbp
  401361:	c3                   	retq   

0000000000401362 <strings_not_equal>:
  401362:	55                   	push   %rbp
  401363:	48 89 e5             	mov    %rsp,%rbp
  401366:	53                   	push   %rbx
  401367:	48 83 ec 20          	sub    $0x20,%rsp
  40136b:	48 89 7d e0          	mov    %rdi,-0x20(%rbp)
  40136f:	48 89 75 d8          	mov    %rsi,-0x28(%rbp)
  401373:	48 8b 45 e0          	mov    -0x20(%rbp),%rax
  401377:	48 89 c7             	mov    %rax,%rdi
  40137a:	e8 b1 ff ff ff       	callq  401330 <string_length>
  40137f:	89 c3                	mov    %eax,%ebx
  401381:	48 8b 45 d8          	mov    -0x28(%rbp),%rax
  401385:	48 89 c7             	mov    %rax,%rdi
  401388:	e8 a3 ff ff ff       	callq  401330 <string_length>
  40138d:	39 c3                	cmp    %eax,%ebx
  40138f:	74 07                	je     401398 <strings_not_equal+0x36>
  401391:	b8 01 00 00 00       	mov    $0x1,%eax
  401396:	eb 45                	jmp    4013dd <strings_not_equal+0x7b>
  401398:	48 8b 45 e0          	mov    -0x20(%rbp),%rax
  40139c:	48 89 45 f0          	mov    %rax,-0x10(%rbp)
  4013a0:	48 8b 45 d8          	mov    -0x28(%rbp),%rax
  4013a4:	48 89 45 e8          	mov    %rax,-0x18(%rbp)
  4013a8:	eb 23                	jmp    4013cd <strings_not_equal+0x6b>
  4013aa:	48 8b 45 f0          	mov    -0x10(%rbp),%rax
  4013ae:	0f b6 10             	movzbl (%rax),%edx
  4013b1:	48 8b 45 e8          	mov    -0x18(%rbp),%rax
  4013b5:	0f b6 00             	movzbl (%rax),%eax
  4013b8:	38 c2                	cmp    %al,%dl
  4013ba:	74 07                	je     4013c3 <strings_not_equal+0x61>
  4013bc:	b8 01 00 00 00       	mov    $0x1,%eax
  4013c1:	eb 1a                	jmp    4013dd <strings_not_equal+0x7b>
  4013c3:	48 83 45 f0 01       	addq   $0x1,-0x10(%rbp)
  4013c8:	48 83 45 e8 01       	addq   $0x1,-0x18(%rbp)
  4013cd:	48 8b 45 f0          	mov    -0x10(%rbp),%rax
  4013d1:	0f b6 00             	movzbl (%rax),%eax
  4013d4:	84 c0                	test   %al,%al
  4013d6:	75 d2                	jne    4013aa <strings_not_equal+0x48>
  4013d8:	b8 00 00 00 00       	mov    $0x0,%eax
  4013dd:	48 83 c4 20          	add    $0x20,%rsp
  4013e1:	5b                   	pop    %rbx
  4013e2:	5d                   	pop    %rbp
  4013e3:	c3                   	retq   

00000000004013e4 <open_clientfd>:
  4013e4:	55                   	push   %rbp
  4013e5:	48 89 e5             	mov    %rsp,%rbp
  4013e8:	48 83 ec 30          	sub    $0x30,%rsp
  4013ec:	48 89 7d d8          	mov    %rdi,-0x28(%rbp)
  4013f0:	89 75 d4             	mov    %esi,-0x2c(%rbp)
  4013f3:	ba 00 00 00 00       	mov    $0x0,%edx
  4013f8:	be 01 00 00 00       	mov    $0x1,%esi
  4013fd:	bf 02 00 00 00       	mov    $0x2,%edi
  401402:	e8 09 fa ff ff       	callq  400e10 <socket@plt>
  401407:	89 45 fc             	mov    %eax,-0x4(%rbp)
  40140a:	83 7d fc 00          	cmpl   $0x0,-0x4(%rbp)
  40140e:	79 16                	jns    401426 <open_clientfd+0x42>
  401410:	48 8d 3d dc 0c 00 00 	lea    0xcdc(%rip),%rdi        # 4020f3 <_IO_stdin_used+0x1d3>
  401417:	e8 14 f8 ff ff       	callq  400c30 <puts@plt>
  40141c:	bf 08 00 00 00       	mov    $0x8,%edi
  401421:	e8 9a f9 ff ff       	callq  400dc0 <exit@plt>
  401426:	48 8b 45 d8          	mov    -0x28(%rbp),%rax
  40142a:	48 89 c7             	mov    %rax,%rdi
  40142d:	e8 de f8 ff ff       	callq  400d10 <gethostbyname@plt>
  401432:	48 89 45 f0          	mov    %rax,-0x10(%rbp)
  401436:	48 83 7d f0 00       	cmpq   $0x0,-0x10(%rbp)
  40143b:	75 16                	jne    401453 <open_clientfd+0x6f>
  40143d:	48 8d 3d bd 0c 00 00 	lea    0xcbd(%rip),%rdi        # 402101 <_IO_stdin_used+0x1e1>
  401444:	e8 e7 f7 ff ff       	callq  400c30 <puts@plt>
  401449:	bf 08 00 00 00       	mov    $0x8,%edi
  40144e:	e8 6d f9 ff ff       	callq  400dc0 <exit@plt>
  401453:	48 8d 45 e0          	lea    -0x20(%rbp),%rax
  401457:	be 10 00 00 00       	mov    $0x10,%esi
  40145c:	48 89 c7             	mov    %rax,%rdi
  40145f:	e8 2c f9 ff ff       	callq  400d90 <bzero@plt>
  401464:	66 c7 45 e0 02 00    	movw   $0x2,-0x20(%rbp)
  40146a:	48 8b 45 f0          	mov    -0x10(%rbp),%rax
  40146e:	8b 40 14             	mov    0x14(%rax),%eax
  401471:	48 63 d0             	movslq %eax,%rdx
  401474:	48 8b 45 f0          	mov    -0x10(%rbp),%rax
  401478:	48 8b 40 18          	mov    0x18(%rax),%rax
  40147c:	48 8b 00             	mov    (%rax),%rax
  40147f:	48 8d 4d e0          	lea    -0x20(%rbp),%rcx
  401483:	48 83 c1 04          	add    $0x4,%rcx
  401487:	48 89 ce             	mov    %rcx,%rsi
  40148a:	48 89 c7             	mov    %rax,%rdi
  40148d:	e8 ce f8 ff ff       	callq  400d60 <bcopy@plt>
  401492:	8b 45 d4             	mov    -0x2c(%rbp),%eax
  401495:	0f b7 c0             	movzwl %ax,%eax
  401498:	89 c7                	mov    %eax,%edi
  40149a:	e8 e1 f7 ff ff       	callq  400c80 <htons@plt>
  40149f:	66 89 45 e2          	mov    %ax,-0x1e(%rbp)
  4014a3:	48 8d 4d e0          	lea    -0x20(%rbp),%rcx
  4014a7:	8b 45 fc             	mov    -0x4(%rbp),%eax
  4014aa:	ba 10 00 00 00       	mov    $0x10,%edx
  4014af:	48 89 ce             	mov    %rcx,%rsi
  4014b2:	89 c7                	mov    %eax,%edi
  4014b4:	e8 17 f9 ff ff       	callq  400dd0 <connect@plt>
  4014b9:	85 c0                	test   %eax,%eax
  4014bb:	79 16                	jns    4014d3 <open_clientfd+0xef>
  4014bd:	48 8d 3d 4b 0c 00 00 	lea    0xc4b(%rip),%rdi        # 40210f <_IO_stdin_used+0x1ef>
  4014c4:	e8 67 f7 ff ff       	callq  400c30 <puts@plt>
  4014c9:	bf 08 00 00 00       	mov    $0x8,%edi
  4014ce:	e8 ed f8 ff ff       	callq  400dc0 <exit@plt>
  4014d3:	8b 45 fc             	mov    -0x4(%rbp),%eax
  4014d6:	c9                   	leaveq 
  4014d7:	c3                   	retq   

00000000004014d8 <initialize_bomb>:
  4014d8:	55                   	push   %rbp
  4014d9:	48 89 e5             	mov    %rsp,%rbp
  4014dc:	48 8d 35 53 fd ff ff 	lea    -0x2ad(%rip),%rsi        # 401236 <sig_handler>
  4014e3:	bf 02 00 00 00       	mov    $0x2,%edi
  4014e8:	e8 13 f8 ff ff       	callq  400d00 <signal@plt>
  4014ed:	be 50 00 00 00       	mov    $0x50,%esi
  4014f2:	48 8d 3d 24 0c 00 00 	lea    0xc24(%rip),%rdi        # 40211d <_IO_stdin_used+0x1fd>
  4014f9:	e8 e6 fe ff ff       	callq  4013e4 <open_clientfd>
  4014fe:	89 c7                	mov    %eax,%edi
  401500:	e8 bb f7 ff ff       	callq  400cc0 <close@plt>
  401505:	90                   	nop
  401506:	5d                   	pop    %rbp
  401507:	c3                   	retq   

0000000000401508 <blank_line>:
  401508:	55                   	push   %rbp
  401509:	48 89 e5             	mov    %rsp,%rbp
  40150c:	48 83 ec 10          	sub    $0x10,%rsp
  401510:	48 89 7d f8          	mov    %rdi,-0x8(%rbp)
  401514:	eb 37                	jmp    40154d <blank_line+0x45>
  401516:	e8 e5 f8 ff ff       	callq  400e00 <__ctype_b_loc@plt>
  40151b:	48 8b 08             	mov    (%rax),%rcx
  40151e:	48 8b 45 f8          	mov    -0x8(%rbp),%rax
  401522:	48 8d 50 01          	lea    0x1(%rax),%rdx
  401526:	48 89 55 f8          	mov    %rdx,-0x8(%rbp)
  40152a:	0f b6 00             	movzbl (%rax),%eax
  40152d:	48 0f be c0          	movsbq %al,%rax
  401531:	48 01 c0             	add    %rax,%rax
  401534:	48 01 c8             	add    %rcx,%rax
  401537:	0f b7 00             	movzwl (%rax),%eax
  40153a:	0f b7 c0             	movzwl %ax,%eax
  40153d:	25 00 20 00 00       	and    $0x2000,%eax
  401542:	85 c0                	test   %eax,%eax
  401544:	75 07                	jne    40154d <blank_line+0x45>
  401546:	b8 00 00 00 00       	mov    $0x0,%eax
  40154b:	eb 10                	jmp    40155d <blank_line+0x55>
  40154d:	48 8b 45 f8          	mov    -0x8(%rbp),%rax
  401551:	0f b6 00             	movzbl (%rax),%eax
  401554:	84 c0                	test   %al,%al
  401556:	75 be                	jne    401516 <blank_line+0xe>
  401558:	b8 01 00 00 00       	mov    $0x1,%eax
  40155d:	c9                   	leaveq 
  40155e:	c3                   	retq   

000000000040155f <skip>:
  40155f:	55                   	push   %rbp
  401560:	48 89 e5             	mov    %rsp,%rbp
  401563:	48 83 ec 10          	sub    $0x10,%rsp
  401567:	48 8b 0d 72 20 20 00 	mov    0x202072(%rip),%rcx        # 6035e0 <infile>
  40156e:	8b 05 68 20 20 00    	mov    0x202068(%rip),%eax        # 6035dc <num_input_strings>
  401574:	48 63 d0             	movslq %eax,%rdx
  401577:	48 89 d0             	mov    %rdx,%rax
  40157a:	48 c1 e0 02          	shl    $0x2,%rax
  40157e:	48 01 d0             	add    %rdx,%rax
  401581:	48 c1 e0 04          	shl    $0x4,%rax
  401585:	48 8d 15 74 20 20 00 	lea    0x202074(%rip),%rdx        # 603600 <input_strings>
  40158c:	48 01 d0             	add    %rdx,%rax
  40158f:	48 89 ca             	mov    %rcx,%rdx
  401592:	be 50 00 00 00       	mov    $0x50,%esi
  401597:	48 89 c7             	mov    %rax,%rdi
  40159a:	e8 41 f7 ff ff       	callq  400ce0 <fgets@plt>
  40159f:	48 89 45 f8          	mov    %rax,-0x8(%rbp)
  4015a3:	48 83 7d f8 00       	cmpq   $0x0,-0x8(%rbp)
  4015a8:	74 10                	je     4015ba <skip+0x5b>
  4015aa:	48 8b 45 f8          	mov    -0x8(%rbp),%rax
  4015ae:	48 89 c7             	mov    %rax,%rdi
  4015b1:	e8 52 ff ff ff       	callq  401508 <blank_line>
  4015b6:	85 c0                	test   %eax,%eax
  4015b8:	75 ad                	jne    401567 <skip+0x8>
  4015ba:	48 8b 45 f8          	mov    -0x8(%rbp),%rax
  4015be:	c9                   	leaveq 
  4015bf:	c3                   	retq   

00000000004015c0 <read_line>:
  4015c0:	55                   	push   %rbp
  4015c1:	48 89 e5             	mov    %rsp,%rbp
  4015c4:	48 83 ec 10          	sub    $0x10,%rsp
  4015c8:	b8 00 00 00 00       	mov    $0x0,%eax
  4015cd:	e8 8d ff ff ff       	callq  40155f <skip>
  4015d2:	48 89 45 f8          	mov    %rax,-0x8(%rbp)
  4015d6:	48 83 7d f8 00       	cmpq   $0x0,-0x8(%rbp)
  4015db:	75 75                	jne    401652 <read_line+0x92>
  4015dd:	48 8b 15 fc 1f 20 00 	mov    0x201ffc(%rip),%rdx        # 6035e0 <infile>
  4015e4:	48 8b 05 e5 1f 20 00 	mov    0x201fe5(%rip),%rax        # 6035d0 <stdin@@GLIBC_2.2.5>
  4015eb:	48 39 c2             	cmp    %rax,%rdx
  4015ee:	75 13                	jne    401603 <read_line+0x43>
  4015f0:	48 8d 3d 34 0b 00 00 	lea    0xb34(%rip),%rdi        # 40212b <_IO_stdin_used+0x20b>
  4015f7:	e8 34 f6 ff ff       	callq  400c30 <puts@plt>
  4015fc:	e8 9a 07 00 00       	callq  401d9b <explode_bomb>
  401601:	eb 4f                	jmp    401652 <read_line+0x92>
  401603:	48 8d 3d 3f 0b 00 00 	lea    0xb3f(%rip),%rdi        # 402149 <_IO_stdin_used+0x229>
  40160a:	e8 f1 f5 ff ff       	callq  400c00 <getenv@plt>
  40160f:	48 85 c0             	test   %rax,%rax
  401612:	74 0a                	je     40161e <read_line+0x5e>
  401614:	bf 00 00 00 00       	mov    $0x0,%edi
  401619:	e8 a2 f7 ff ff       	callq  400dc0 <exit@plt>
  40161e:	48 8b 05 ab 1f 20 00 	mov    0x201fab(%rip),%rax        # 6035d0 <stdin@@GLIBC_2.2.5>
  401625:	48 89 05 b4 1f 20 00 	mov    %rax,0x201fb4(%rip)        # 6035e0 <infile>
  40162c:	b8 00 00 00 00       	mov    $0x0,%eax
  401631:	e8 29 ff ff ff       	callq  40155f <skip>
  401636:	48 89 45 f8          	mov    %rax,-0x8(%rbp)
  40163a:	48 83 7d f8 00       	cmpq   $0x0,-0x8(%rbp)
  40163f:	75 11                	jne    401652 <read_line+0x92>
  401641:	48 8d 3d e3 0a 00 00 	lea    0xae3(%rip),%rdi        # 40212b <_IO_stdin_used+0x20b>
  401648:	e8 e3 f5 ff ff       	callq  400c30 <puts@plt>
  40164d:	e8 49 07 00 00       	callq  401d9b <explode_bomb>
  401652:	8b 05 84 1f 20 00    	mov    0x201f84(%rip),%eax        # 6035dc <num_input_strings>
  401658:	48 63 d0             	movslq %eax,%rdx
  40165b:	48 89 d0             	mov    %rdx,%rax
  40165e:	48 c1 e0 02          	shl    $0x2,%rax
  401662:	48 01 d0             	add    %rdx,%rax
  401665:	48 c1 e0 04          	shl    $0x4,%rax
  401669:	48 8d 15 90 1f 20 00 	lea    0x201f90(%rip),%rdx        # 603600 <input_strings>
  401670:	48 01 d0             	add    %rdx,%rax
  401673:	48 89 c7             	mov    %rax,%rdi
  401676:	e8 e5 f5 ff ff       	callq  400c60 <strlen@plt>
  40167b:	89 45 f4             	mov    %eax,-0xc(%rbp)
  40167e:	83 7d f4 4f          	cmpl   $0x4f,-0xc(%rbp)
  401682:	75 11                	jne    401695 <read_line+0xd5>
  401684:	48 8d 3d c9 0a 00 00 	lea    0xac9(%rip),%rdi        # 402154 <_IO_stdin_used+0x234>
  40168b:	e8 a0 f5 ff ff       	callq  400c30 <puts@plt>
  401690:	e8 06 07 00 00       	callq  401d9b <explode_bomb>
  401695:	8b 05 41 1f 20 00    	mov    0x201f41(%rip),%eax        # 6035dc <num_input_strings>
  40169b:	8b 55 f4             	mov    -0xc(%rbp),%edx
  40169e:	83 ea 01             	sub    $0x1,%edx
  4016a1:	48 63 ca             	movslq %edx,%rcx
  4016a4:	48 63 d0             	movslq %eax,%rdx
  4016a7:	48 89 d0             	mov    %rdx,%rax
  4016aa:	48 c1 e0 02          	shl    $0x2,%rax
  4016ae:	48 01 d0             	add    %rdx,%rax
  4016b1:	48 c1 e0 04          	shl    $0x4,%rax
  4016b5:	48 8d 14 08          	lea    (%rax,%rcx,1),%rdx
  4016b9:	48 8d 05 40 1f 20 00 	lea    0x201f40(%rip),%rax        # 603600 <input_strings>
  4016c0:	48 01 d0             	add    %rdx,%rax
  4016c3:	c6 00 00             	movb   $0x0,(%rax)
  4016c6:	8b 05 10 1f 20 00    	mov    0x201f10(%rip),%eax        # 6035dc <num_input_strings>
  4016cc:	8d 50 01             	lea    0x1(%rax),%edx
  4016cf:	89 15 07 1f 20 00    	mov    %edx,0x201f07(%rip)        # 6035dc <num_input_strings>
  4016d5:	48 63 d0             	movslq %eax,%rdx
  4016d8:	48 89 d0             	mov    %rdx,%rax
  4016db:	48 c1 e0 02          	shl    $0x2,%rax
  4016df:	48 01 d0             	add    %rdx,%rax
  4016e2:	48 c1 e0 04          	shl    $0x4,%rax
  4016e6:	48 8d 15 13 1f 20 00 	lea    0x201f13(%rip),%rdx        # 603600 <input_strings>
  4016ed:	48 01 d0             	add    %rdx,%rax
  4016f0:	c9                   	leaveq 
  4016f1:	c3                   	retq   

00000000004016f2 <writen>:
  4016f2:	55                   	push   %rbp
  4016f3:	48 89 e5             	mov    %rsp,%rbp
  4016f6:	48 83 ec 40          	sub    $0x40,%rsp
  4016fa:	89 7d dc             	mov    %edi,-0x24(%rbp)
  4016fd:	48 89 75 d0          	mov    %rsi,-0x30(%rbp)
  401701:	48 89 55 c8          	mov    %rdx,-0x38(%rbp)
  401705:	48 8b 45 d0          	mov    -0x30(%rbp),%rax
  401709:	48 89 45 e8          	mov    %rax,-0x18(%rbp)
  40170d:	48 8b 45 c8          	mov    -0x38(%rbp),%rax
  401711:	48 89 45 f8          	mov    %rax,-0x8(%rbp)
  401715:	eb 4f                	jmp    401766 <writen+0x74>
  401717:	48 8b 55 f8          	mov    -0x8(%rbp),%rdx
  40171b:	48 8b 4d e8          	mov    -0x18(%rbp),%rcx
  40171f:	8b 45 dc             	mov    -0x24(%rbp),%eax
  401722:	48 89 ce             	mov    %rcx,%rsi
  401725:	89 c7                	mov    %eax,%edi
  401727:	e8 14 f5 ff ff       	callq  400c40 <write@plt>
  40172c:	48 89 45 f0          	mov    %rax,-0x10(%rbp)
  401730:	48 83 7d f0 00       	cmpq   $0x0,-0x10(%rbp)
  401735:	7f 1f                	jg     401756 <writen+0x64>
  401737:	e8 d4 f4 ff ff       	callq  400c10 <__errno_location@plt>
  40173c:	8b 00                	mov    (%rax),%eax
  40173e:	83 f8 04             	cmp    $0x4,%eax
  401741:	75 0a                	jne    40174d <writen+0x5b>
  401743:	48 c7 45 f0 00 00 00 	movq   $0x0,-0x10(%rbp)
  40174a:	00 
  40174b:	eb 09                	jmp    401756 <writen+0x64>
  40174d:	48 c7 c0 ff ff ff ff 	mov    $0xffffffffffffffff,%rax
  401754:	eb 1b                	jmp    401771 <writen+0x7f>
  401756:	48 8b 45 f0          	mov    -0x10(%rbp),%rax
  40175a:	48 29 45 f8          	sub    %rax,-0x8(%rbp)
  40175e:	48 8b 45 f0          	mov    -0x10(%rbp),%rax
  401762:	48 01 45 e8          	add    %rax,-0x18(%rbp)
  401766:	48 83 7d f8 00       	cmpq   $0x0,-0x8(%rbp)
  40176b:	75 aa                	jne    401717 <writen+0x25>
  40176d:	48 8b 45 c8          	mov    -0x38(%rbp),%rax
  401771:	c9                   	leaveq 
  401772:	c3                   	retq   

0000000000401773 <send_msg>:
  401773:	55                   	push   %rbp
  401774:	48 89 e5             	mov    %rsp,%rbp
  401777:	53                   	push   %rbx
  401778:	48 81 ec 88 24 00 00 	sub    $0x2488,%rsp
  40177f:	89 bd 7c db ff ff    	mov    %edi,-0x2484(%rbp)
  401785:	c7 45 e8 00 00 00 00 	movl   $0x0,-0x18(%rbp)
  40178c:	ba 00 00 00 00       	mov    $0x0,%edx
  401791:	be 01 00 00 00       	mov    $0x1,%esi
  401796:	bf 02 00 00 00       	mov    $0x2,%edi
  40179b:	e8 70 f6 ff ff       	callq  400e10 <socket@plt>
  4017a0:	89 45 e8             	mov    %eax,-0x18(%rbp)
  4017a3:	83 7d e8 00          	cmpl   $0x0,-0x18(%rbp)
  4017a7:	79 3c                	jns    4017e5 <send_msg+0x72>
  4017a9:	48 8b 05 10 1e 20 00 	mov    0x201e10(%rip),%rax        # 6035c0 <__TMC_END__>
  4017b0:	48 8d 15 b8 09 00 00 	lea    0x9b8(%rip),%rdx        # 40216f <_IO_stdin_used+0x24f>
  4017b7:	48 8d 35 be 09 00 00 	lea    0x9be(%rip),%rsi        # 40217c <_IO_stdin_used+0x25c>
  4017be:	48 89 c7             	mov    %rax,%rdi
  4017c1:	b8 00 00 00 00       	mov    $0x0,%eax
  4017c6:	e8 55 f5 ff ff       	callq  400d20 <fprintf@plt>
  4017cb:	83 7d e8 00          	cmpl   $0x0,-0x18(%rbp)
  4017cf:	74 0a                	je     4017db <send_msg+0x68>
  4017d1:	8b 45 e8             	mov    -0x18(%rbp),%eax
  4017d4:	89 c7                	mov    %eax,%edi
  4017d6:	e8 e5 f4 ff ff       	callq  400cc0 <close@plt>
  4017db:	bf 01 00 00 00       	mov    $0x1,%edi
  4017e0:	e8 db f5 ff ff       	callq  400dc0 <exit@plt>
  4017e5:	48 8d 45 d0          	lea    -0x30(%rbp),%rax
  4017e9:	be 10 00 00 00       	mov    $0x10,%esi
  4017ee:	48 89 c7             	mov    %rax,%rdi
  4017f1:	e8 9a f5 ff ff       	callq  400d90 <bzero@plt>
  4017f6:	66 c7 45 d0 02 00    	movw   $0x2,-0x30(%rbp)
  4017fc:	bf 62 cc 00 00       	mov    $0xcc62,%edi
  401801:	e8 7a f4 ff ff       	callq  400c80 <htons@plt>
  401806:	66 89 45 d2          	mov    %ax,-0x2e(%rbp)
  40180a:	48 8d 45 d0          	lea    -0x30(%rbp),%rax
  40180e:	48 83 c0 04          	add    $0x4,%rax
  401812:	48 89 c2             	mov    %rax,%rdx
  401815:	48 8d 35 01 09 00 00 	lea    0x901(%rip),%rsi        # 40211d <_IO_stdin_used+0x1fd>
  40181c:	bf 02 00 00 00       	mov    $0x2,%edi
  401821:	b8 00 00 00 00       	mov    $0x0,%eax
  401826:	e8 05 f5 ff ff       	callq  400d30 <inet_pton@plt>
  40182b:	85 c0                	test   %eax,%eax
  40182d:	79 3c                	jns    40186b <send_msg+0xf8>
  40182f:	48 8b 05 8a 1d 20 00 	mov    0x201d8a(%rip),%rax        # 6035c0 <__TMC_END__>
  401836:	48 8d 15 43 09 00 00 	lea    0x943(%rip),%rdx        # 402180 <_IO_stdin_used+0x260>
  40183d:	48 8d 35 38 09 00 00 	lea    0x938(%rip),%rsi        # 40217c <_IO_stdin_used+0x25c>
  401844:	48 89 c7             	mov    %rax,%rdi
  401847:	b8 00 00 00 00       	mov    $0x0,%eax
  40184c:	e8 cf f4 ff ff       	callq  400d20 <fprintf@plt>
  401851:	83 7d e8 00          	cmpl   $0x0,-0x18(%rbp)
  401855:	74 0a                	je     401861 <send_msg+0xee>
  401857:	8b 45 e8             	mov    -0x18(%rbp),%eax
  40185a:	89 c7                	mov    %eax,%edi
  40185c:	e8 5f f4 ff ff       	callq  400cc0 <close@plt>
  401861:	bf 01 00 00 00       	mov    $0x1,%edi
  401866:	e8 55 f5 ff ff       	callq  400dc0 <exit@plt>
  40186b:	48 8d 4d d0          	lea    -0x30(%rbp),%rcx
  40186f:	8b 45 e8             	mov    -0x18(%rbp),%eax
  401872:	ba 10 00 00 00       	mov    $0x10,%edx
  401877:	48 89 ce             	mov    %rcx,%rsi
  40187a:	89 c7                	mov    %eax,%edi
  40187c:	e8 4f f5 ff ff       	callq  400dd0 <connect@plt>
  401881:	85 c0                	test   %eax,%eax
  401883:	79 3c                	jns    4018c1 <send_msg+0x14e>
  401885:	48 8b 05 34 1d 20 00 	mov    0x201d34(%rip),%rax        # 6035c0 <__TMC_END__>
  40188c:	48 8d 15 f3 08 00 00 	lea    0x8f3(%rip),%rdx        # 402186 <_IO_stdin_used+0x266>
  401893:	48 8d 35 e2 08 00 00 	lea    0x8e2(%rip),%rsi        # 40217c <_IO_stdin_used+0x25c>
  40189a:	48 89 c7             	mov    %rax,%rdi
  40189d:	b8 00 00 00 00       	mov    $0x0,%eax
  4018a2:	e8 79 f4 ff ff       	callq  400d20 <fprintf@plt>
  4018a7:	83 7d e8 00          	cmpl   $0x0,-0x18(%rbp)
  4018ab:	74 0a                	je     4018b7 <send_msg+0x144>
  4018ad:	8b 45 e8             	mov    -0x18(%rbp),%eax
  4018b0:	89 c7                	mov    %eax,%edi
  4018b2:	e8 09 f4 ff ff       	callq  400cc0 <close@plt>
  4018b7:	bf 01 00 00 00       	mov    $0x1,%edi
  4018bc:	e8 ff f4 ff ff       	callq  400dc0 <exit@plt>
  4018c1:	48 8d 85 d0 db ff ff 	lea    -0x2430(%rbp),%rax
  4018c8:	48 bb 53 75 62 6a 65 	movabs $0x3a7463656a627553,%rbx
  4018cf:	63 74 3a 
  4018d2:	48 89 18             	mov    %rbx,(%rax)
  4018d5:	48 bb 20 42 6f 6d 62 	movabs $0x6f6e20626d6f4220,%rbx
  4018dc:	20 6e 6f 
  4018df:	48 89 58 08          	mov    %rbx,0x8(%rax)
  4018e3:	48 bb 74 69 66 69 63 	movabs $0x6974616369666974,%rbx
  4018ea:	61 74 69 
  4018ed:	48 89 58 10          	mov    %rbx,0x10(%rax)
  4018f1:	c7 40 18 6f 6e 0a 00 	movl   $0xa6e6f,0x18(%rax)
  4018f8:	48 8d 95 d0 db ff ff 	lea    -0x2430(%rbp),%rdx
  4018ff:	48 8d 85 d0 df ff ff 	lea    -0x2030(%rbp),%rax
  401906:	48 89 d6             	mov    %rdx,%rsi
  401909:	48 89 c7             	mov    %rax,%rdi
  40190c:	e8 8f f4 ff ff       	callq  400da0 <strcat@plt>
  401911:	48 8d 85 d0 db ff ff 	lea    -0x2430(%rbp),%rax
  401918:	66 c7 00 0a 00       	movw   $0xa,(%rax)
  40191d:	48 8d 95 d0 db ff ff 	lea    -0x2430(%rbp),%rdx
  401924:	48 8d 85 d0 df ff ff 	lea    -0x2030(%rbp),%rax
  40192b:	48 89 d6             	mov    %rdx,%rsi
  40192e:	48 89 c7             	mov    %rax,%rdi
  401931:	e8 6a f4 ff ff       	callq  400da0 <strcat@plt>
  401936:	bf 00 00 00 00       	mov    $0x0,%edi
  40193b:	e8 30 f4 ff ff       	callq  400d70 <cuserid@plt>
  401940:	48 89 45 e0          	mov    %rax,-0x20(%rbp)
  401944:	48 83 7d e0 00       	cmpq   $0x0,-0x20(%rbp)
  401949:	75 19                	jne    401964 <send_msg+0x1f1>
  40194b:	48 8d 85 80 db ff ff 	lea    -0x2480(%rbp),%rax
  401952:	c7 00 6e 6f 62 6f    	movl   $0x6f626f6e,(%rax)
  401958:	66 c7 40 04 64 79    	movw   $0x7964,0x4(%rax)
  40195e:	c6 40 06 00          	movb   $0x0,0x6(%rax)
  401962:	eb 16                	jmp    40197a <send_msg+0x207>
  401964:	48 8b 55 e0          	mov    -0x20(%rbp),%rdx
  401968:	48 8d 85 80 db ff ff 	lea    -0x2480(%rbp),%rax
  40196f:	48 89 d6             	mov    %rdx,%rsi
  401972:	48 89 c7             	mov    %rax,%rdi
  401975:	e8 a6 f2 ff ff       	callq  400c20 <strcpy@plt>
  40197a:	8b 0d 5c 1c 20 00    	mov    0x201c5c(%rip),%ecx        # 6035dc <num_input_strings>
  401980:	83 bd 7c db ff ff 00 	cmpl   $0x0,-0x2484(%rbp)
  401987:	74 09                	je     401992 <send_msg+0x21f>
  401989:	48 8d 05 04 08 00 00 	lea    0x804(%rip),%rax        # 402194 <_IO_stdin_used+0x274>
  401990:	eb 07                	jmp    401999 <send_msg+0x226>
  401992:	48 8d 05 03 08 00 00 	lea    0x803(%rip),%rax        # 40219c <_IO_stdin_used+0x27c>
  401999:	8b 15 c1 17 20 00    	mov    0x2017c1(%rip),%edx        # 603160 <bomb_id>
  40199f:	48 8d b5 80 db ff ff 	lea    -0x2480(%rbp),%rsi
  4019a6:	48 8d bd d0 db ff ff 	lea    -0x2430(%rbp),%rdi
  4019ad:	48 83 ec 08          	sub    $0x8,%rsp
  4019b1:	51                   	push   %rcx
  4019b2:	49 89 c1             	mov    %rax,%r9
  4019b5:	49 89 f0             	mov    %rsi,%r8
  4019b8:	89 d1                	mov    %edx,%ecx
  4019ba:	48 8d 15 bf 17 20 00 	lea    0x2017bf(%rip),%rdx        # 603180 <lab_id>
  4019c1:	48 8d 35 dd 07 00 00 	lea    0x7dd(%rip),%rsi        # 4021a5 <_IO_stdin_used+0x285>
  4019c8:	b8 00 00 00 00       	mov    $0x0,%eax
  4019cd:	e8 de f3 ff ff       	callq  400db0 <sprintf@plt>
  4019d2:	48 83 c4 10          	add    $0x10,%rsp
  4019d6:	48 8d 95 d0 db ff ff 	lea    -0x2430(%rbp),%rdx
  4019dd:	48 8d 85 d0 df ff ff 	lea    -0x2030(%rbp),%rax
  4019e4:	48 89 d6             	mov    %rdx,%rsi
  4019e7:	48 89 c7             	mov    %rax,%rdi
  4019ea:	e8 b1 f3 ff ff       	callq  400da0 <strcat@plt>
  4019ef:	c7 45 ec 00 00 00 00 	movl   $0x0,-0x14(%rbp)
  4019f6:	e9 82 00 00 00       	jmpq   401a7d <send_msg+0x30a>
  4019fb:	8b 45 ec             	mov    -0x14(%rbp),%eax
  4019fe:	48 63 d0             	movslq %eax,%rdx
  401a01:	48 89 d0             	mov    %rdx,%rax
  401a04:	48 c1 e0 02          	shl    $0x2,%rax
  401a08:	48 01 d0             	add    %rdx,%rax
  401a0b:	48 c1 e0 04          	shl    $0x4,%rax
  401a0f:	48 8d 15 ea 1b 20 00 	lea    0x201bea(%rip),%rdx        # 603600 <input_strings>
  401a16:	48 8d 34 10          	lea    (%rax,%rdx,1),%rsi
  401a1a:	8b 45 ec             	mov    -0x14(%rbp),%eax
  401a1d:	8d 78 01             	lea    0x1(%rax),%edi
  401a20:	8b 15 3a 17 20 00    	mov    0x20173a(%rip),%edx        # 603160 <bomb_id>
  401a26:	48 8d 8d 80 db ff ff 	lea    -0x2480(%rbp),%rcx
  401a2d:	48 8d 85 d0 db ff ff 	lea    -0x2430(%rbp),%rax
  401a34:	48 83 ec 08          	sub    $0x8,%rsp
  401a38:	56                   	push   %rsi
  401a39:	41 89 f9             	mov    %edi,%r9d
  401a3c:	49 89 c8             	mov    %rcx,%r8
  401a3f:	89 d1                	mov    %edx,%ecx
  401a41:	48 8d 15 38 17 20 00 	lea    0x201738(%rip),%rdx        # 603180 <lab_id>
  401a48:	48 8d 35 72 07 00 00 	lea    0x772(%rip),%rsi        # 4021c1 <_IO_stdin_used+0x2a1>
  401a4f:	48 89 c7             	mov    %rax,%rdi
  401a52:	b8 00 00 00 00       	mov    $0x0,%eax
  401a57:	e8 54 f3 ff ff       	callq  400db0 <sprintf@plt>
  401a5c:	48 83 c4 10          	add    $0x10,%rsp
  401a60:	48 8d 95 d0 db ff ff 	lea    -0x2430(%rbp),%rdx
  401a67:	48 8d 85 d0 df ff ff 	lea    -0x2030(%rbp),%rax
  401a6e:	48 89 d6             	mov    %rdx,%rsi
  401a71:	48 89 c7             	mov    %rax,%rdi
  401a74:	e8 27 f3 ff ff       	callq  400da0 <strcat@plt>
  401a79:	83 45 ec 01          	addl   $0x1,-0x14(%rbp)
  401a7d:	8b 05 59 1b 20 00    	mov    0x201b59(%rip),%eax        # 6035dc <num_input_strings>
  401a83:	39 45 ec             	cmp    %eax,-0x14(%rbp)
  401a86:	0f 8c 6f ff ff ff    	jl     4019fb <send_msg+0x288>
  401a8c:	48 8d 85 d0 df ff ff 	lea    -0x2030(%rbp),%rax
  401a93:	48 89 c7             	mov    %rax,%rdi
  401a96:	e8 c5 f1 ff ff       	callq  400c60 <strlen@plt>
  401a9b:	48 89 c2             	mov    %rax,%rdx
  401a9e:	48 8d 8d d0 df ff ff 	lea    -0x2030(%rbp),%rcx
  401aa5:	8b 45 e8             	mov    -0x18(%rbp),%eax
  401aa8:	48 89 ce             	mov    %rcx,%rsi
  401aab:	89 c7                	mov    %eax,%edi
  401aad:	e8 40 fc ff ff       	callq  4016f2 <writen>
  401ab2:	48 89 c3             	mov    %rax,%rbx
  401ab5:	48 8d 85 d0 df ff ff 	lea    -0x2030(%rbp),%rax
  401abc:	48 89 c7             	mov    %rax,%rdi
  401abf:	e8 9c f1 ff ff       	callq  400c60 <strlen@plt>
  401ac4:	48 39 c3             	cmp    %rax,%rbx
  401ac7:	73 3c                	jae    401b05 <send_msg+0x392>
  401ac9:	48 8b 05 f0 1a 20 00 	mov    0x201af0(%rip),%rax        # 6035c0 <__TMC_END__>
  401ad0:	48 8d 15 06 07 00 00 	lea    0x706(%rip),%rdx        # 4021dd <_IO_stdin_used+0x2bd>
  401ad7:	48 8d 35 9e 06 00 00 	lea    0x69e(%rip),%rsi        # 40217c <_IO_stdin_used+0x25c>
  401ade:	48 89 c7             	mov    %rax,%rdi
  401ae1:	b8 00 00 00 00       	mov    $0x0,%eax
  401ae6:	e8 35 f2 ff ff       	callq  400d20 <fprintf@plt>
  401aeb:	83 7d e8 00          	cmpl   $0x0,-0x18(%rbp)
  401aef:	74 0a                	je     401afb <send_msg+0x388>
  401af1:	8b 45 e8             	mov    -0x18(%rbp),%eax
  401af4:	89 c7                	mov    %eax,%edi
  401af6:	e8 c5 f1 ff ff       	callq  400cc0 <close@plt>
  401afb:	bf 01 00 00 00       	mov    $0x1,%edi
  401b00:	e8 bb f2 ff ff       	callq  400dc0 <exit@plt>
  401b05:	8b 45 e8             	mov    -0x18(%rbp),%eax
  401b08:	89 c7                	mov    %eax,%edi
  401b0a:	e8 b1 f1 ff ff       	callq  400cc0 <close@plt>
  401b0f:	90                   	nop
  401b10:	48 8b 5d f8          	mov    -0x8(%rbp),%rbx
  401b14:	c9                   	leaveq 
  401b15:	c3                   	retq   

0000000000401b16 <send_msg_2>:
  401b16:	55                   	push   %rbp
  401b17:	48 89 e5             	mov    %rsp,%rbp
  401b1a:	48 83 c4 80          	add    $0xffffffffffffff80,%rsp
  401b1e:	89 7d 8c             	mov    %edi,-0x74(%rbp)
  401b21:	bf 00 00 00 00       	mov    $0x0,%edi
  401b26:	e8 85 f1 ff ff       	callq  400cb0 <dup@plt>
  401b2b:	89 45 f8             	mov    %eax,-0x8(%rbp)
  401b2e:	83 7d f8 ff          	cmpl   $0xffffffff,-0x8(%rbp)
  401b32:	75 16                	jne    401b4a <send_msg_2+0x34>
  401b34:	48 8d 3d b5 06 00 00 	lea    0x6b5(%rip),%rdi        # 4021f0 <_IO_stdin_used+0x2d0>
  401b3b:	e8 f0 f0 ff ff       	callq  400c30 <puts@plt>
  401b40:	bf 08 00 00 00       	mov    $0x8,%edi
  401b45:	e8 76 f2 ff ff       	callq  400dc0 <exit@plt>
  401b4a:	bf 00 00 00 00       	mov    $0x0,%edi
  401b4f:	e8 6c f1 ff ff       	callq  400cc0 <close@plt>
  401b54:	83 f8 ff             	cmp    $0xffffffff,%eax
  401b57:	75 16                	jne    401b6f <send_msg_2+0x59>
  401b59:	48 8d 3d a4 06 00 00 	lea    0x6a4(%rip),%rdi        # 402204 <_IO_stdin_used+0x2e4>
  401b60:	e8 cb f0 ff ff       	callq  400c30 <puts@plt>
  401b65:	bf 08 00 00 00       	mov    $0x8,%edi
  401b6a:	e8 51 f2 ff ff       	callq  400dc0 <exit@plt>
  401b6f:	e8 7c f1 ff ff       	callq  400cf0 <tmpfile@plt>
  401b74:	48 89 45 f0          	mov    %rax,-0x10(%rbp)
  401b78:	48 83 7d f0 00       	cmpq   $0x0,-0x10(%rbp)
  401b7d:	75 16                	jne    401b95 <send_msg_2+0x7f>
  401b7f:	48 8d 3d 91 06 00 00 	lea    0x691(%rip),%rdi        # 402217 <_IO_stdin_used+0x2f7>
  401b86:	e8 a5 f0 ff ff       	callq  400c30 <puts@plt>
  401b8b:	bf 08 00 00 00       	mov    $0x8,%edi
  401b90:	e8 2b f2 ff ff       	callq  400dc0 <exit@plt>
  401b95:	48 8b 45 f0          	mov    -0x10(%rbp),%rax
  401b99:	48 89 c1             	mov    %rax,%rcx
  401b9c:	ba 1b 00 00 00       	mov    $0x1b,%edx
  401ba1:	be 01 00 00 00       	mov    $0x1,%esi
  401ba6:	48 8d 3d 7f 06 00 00 	lea    0x67f(%rip),%rdi        # 40222c <_IO_stdin_used+0x30c>
  401bad:	e8 2e f2 ff ff       	callq  400de0 <fwrite@plt>
  401bb2:	48 8b 45 f0          	mov    -0x10(%rbp),%rax
  401bb6:	48 89 c6             	mov    %rax,%rsi
  401bb9:	bf 0a 00 00 00       	mov    $0xa,%edi
  401bbe:	e8 0d f1 ff ff       	callq  400cd0 <fputc@plt>
  401bc3:	bf 00 00 00 00       	mov    $0x0,%edi
  401bc8:	e8 a3 f1 ff ff       	callq  400d70 <cuserid@plt>
  401bcd:	48 89 45 e8          	mov    %rax,-0x18(%rbp)
  401bd1:	48 83 7d e8 00       	cmpq   $0x0,-0x18(%rbp)
  401bd6:	75 16                	jne    401bee <send_msg_2+0xd8>
  401bd8:	48 8d 45 90          	lea    -0x70(%rbp),%rax
  401bdc:	c7 00 6e 6f 62 6f    	movl   $0x6f626f6e,(%rax)
  401be2:	66 c7 40 04 64 79    	movw   $0x7964,0x4(%rax)
  401be8:	c6 40 06 00          	movb   $0x0,0x6(%rax)
  401bec:	eb 13                	jmp    401c01 <send_msg_2+0xeb>
  401bee:	48 8b 55 e8          	mov    -0x18(%rbp),%rdx
  401bf2:	48 8d 45 90          	lea    -0x70(%rbp),%rax
  401bf6:	48 89 d6             	mov    %rdx,%rsi
  401bf9:	48 89 c7             	mov    %rax,%rdi
  401bfc:	e8 1f f0 ff ff       	callq  400c20 <strcpy@plt>
  401c01:	8b 0d d5 19 20 00    	mov    0x2019d5(%rip),%ecx        # 6035dc <num_input_strings>
  401c07:	83 7d 8c 00          	cmpl   $0x0,-0x74(%rbp)
  401c0b:	74 09                	je     401c16 <send_msg_2+0x100>
  401c0d:	48 8d 05 80 05 00 00 	lea    0x580(%rip),%rax        # 402194 <_IO_stdin_used+0x274>
  401c14:	eb 07                	jmp    401c1d <send_msg_2+0x107>
  401c16:	48 8d 05 7f 05 00 00 	lea    0x57f(%rip),%rax        # 40219c <_IO_stdin_used+0x27c>
  401c1d:	8b 15 3d 15 20 00    	mov    0x20153d(%rip),%edx        # 603160 <bomb_id>
  401c23:	48 8d 75 90          	lea    -0x70(%rbp),%rsi
  401c27:	48 8b 7d f0          	mov    -0x10(%rbp),%rdi
  401c2b:	48 83 ec 08          	sub    $0x8,%rsp
  401c2f:	51                   	push   %rcx
  401c30:	49 89 c1             	mov    %rax,%r9
  401c33:	49 89 f0             	mov    %rsi,%r8
  401c36:	89 d1                	mov    %edx,%ecx
  401c38:	48 8d 15 41 15 20 00 	lea    0x201541(%rip),%rdx        # 603180 <lab_id>
  401c3f:	48 8d 35 5f 05 00 00 	lea    0x55f(%rip),%rsi        # 4021a5 <_IO_stdin_used+0x285>
  401c46:	b8 00 00 00 00       	mov    $0x0,%eax
  401c4b:	e8 d0 f0 ff ff       	callq  400d20 <fprintf@plt>
  401c50:	48 83 c4 10          	add    $0x10,%rsp
  401c54:	c7 45 fc 00 00 00 00 	movl   $0x0,-0x4(%rbp)
  401c5b:	eb 63                	jmp    401cc0 <send_msg_2+0x1aa>
  401c5d:	8b 45 fc             	mov    -0x4(%rbp),%eax
  401c60:	48 63 d0             	movslq %eax,%rdx
  401c63:	48 89 d0             	mov    %rdx,%rax
  401c66:	48 c1 e0 02          	shl    $0x2,%rax
  401c6a:	48 01 d0             	add    %rdx,%rax
  401c6d:	48 c1 e0 04          	shl    $0x4,%rax
  401c71:	48 8d 15 88 19 20 00 	lea    0x201988(%rip),%rdx        # 603600 <input_strings>
  401c78:	48 8d 34 10          	lea    (%rax,%rdx,1),%rsi
  401c7c:	8b 45 fc             	mov    -0x4(%rbp),%eax
  401c7f:	8d 78 01             	lea    0x1(%rax),%edi
  401c82:	8b 15 d8 14 20 00    	mov    0x2014d8(%rip),%edx        # 603160 <bomb_id>
  401c88:	48 8d 4d 90          	lea    -0x70(%rbp),%rcx
  401c8c:	48 8b 45 f0          	mov    -0x10(%rbp),%rax
  401c90:	48 83 ec 08          	sub    $0x8,%rsp
  401c94:	56                   	push   %rsi
  401c95:	41 89 f9             	mov    %edi,%r9d
  401c98:	49 89 c8             	mov    %rcx,%r8
  401c9b:	89 d1                	mov    %edx,%ecx
  401c9d:	48 8d 15 dc 14 20 00 	lea    0x2014dc(%rip),%rdx        # 603180 <lab_id>
  401ca4:	48 8d 35 16 05 00 00 	lea    0x516(%rip),%rsi        # 4021c1 <_IO_stdin_used+0x2a1>
  401cab:	48 89 c7             	mov    %rax,%rdi
  401cae:	b8 00 00 00 00       	mov    $0x0,%eax
  401cb3:	e8 68 f0 ff ff       	callq  400d20 <fprintf@plt>
  401cb8:	48 83 c4 10          	add    $0x10,%rsp
  401cbc:	83 45 fc 01          	addl   $0x1,-0x4(%rbp)
  401cc0:	8b 05 16 19 20 00    	mov    0x201916(%rip),%eax        # 6035dc <num_input_strings>
  401cc6:	39 45 fc             	cmp    %eax,-0x4(%rbp)
  401cc9:	7c 92                	jl     401c5d <send_msg_2+0x147>
  401ccb:	48 8b 45 f0          	mov    -0x10(%rbp),%rax
  401ccf:	48 89 c7             	mov    %rax,%rdi
  401cd2:	e8 c9 ef ff ff       	callq  400ca0 <rewind@plt>
  401cd7:	4c 8d 05 6a 05 00 00 	lea    0x56a(%rip),%r8        # 402248 <_IO_stdin_used+0x328>
  401cde:	48 8d 0d 6d 05 00 00 	lea    0x56d(%rip),%rcx        # 402252 <_IO_stdin_used+0x332>
  401ce5:	48 8d 15 71 05 00 00 	lea    0x571(%rip),%rdx        # 40225d <_IO_stdin_used+0x33d>
  401cec:	48 8d 35 81 05 00 00 	lea    0x581(%rip),%rsi        # 402274 <_IO_stdin_used+0x354>
  401cf3:	48 8d 3d 46 1f 20 00 	lea    0x201f46(%rip),%rdi        # 603c40 <scratch>
  401cfa:	b8 00 00 00 00       	mov    $0x0,%eax
  401cff:	e8 ac f0 ff ff       	callq  400db0 <sprintf@plt>
  401d04:	48 8d 3d 35 1f 20 00 	lea    0x201f35(%rip),%rdi        # 603c40 <scratch>
  401d0b:	e8 60 ef ff ff       	callq  400c70 <system@plt>
  401d10:	85 c0                	test   %eax,%eax
  401d12:	74 16                	je     401d2a <send_msg_2+0x214>
  401d14:	48 8d 3d 62 05 00 00 	lea    0x562(%rip),%rdi        # 40227d <_IO_stdin_used+0x35d>
  401d1b:	e8 10 ef ff ff       	callq  400c30 <puts@plt>
  401d20:	bf 08 00 00 00       	mov    $0x8,%edi
  401d25:	e8 96 f0 ff ff       	callq  400dc0 <exit@plt>
  401d2a:	48 8b 45 f0          	mov    -0x10(%rbp),%rax
  401d2e:	48 89 c7             	mov    %rax,%rdi
  401d31:	e8 1a ef ff ff       	callq  400c50 <fclose@plt>
  401d36:	85 c0                	test   %eax,%eax
  401d38:	74 16                	je     401d50 <send_msg_2+0x23a>
  401d3a:	48 8d 3d 56 05 00 00 	lea    0x556(%rip),%rdi        # 402297 <_IO_stdin_used+0x377>
  401d41:	e8 ea ee ff ff       	callq  400c30 <puts@plt>
  401d46:	bf 08 00 00 00       	mov    $0x8,%edi
  401d4b:	e8 70 f0 ff ff       	callq  400dc0 <exit@plt>
  401d50:	8b 45 f8             	mov    -0x8(%rbp),%eax
  401d53:	89 c7                	mov    %eax,%edi
  401d55:	e8 56 ef ff ff       	callq  400cb0 <dup@plt>
  401d5a:	85 c0                	test   %eax,%eax
  401d5c:	74 16                	je     401d74 <send_msg_2+0x25e>
  401d5e:	48 8d 3d 4b 05 00 00 	lea    0x54b(%rip),%rdi        # 4022b0 <_IO_stdin_used+0x390>
  401d65:	e8 c6 ee ff ff       	callq  400c30 <puts@plt>
  401d6a:	bf 08 00 00 00       	mov    $0x8,%edi
  401d6f:	e8 4c f0 ff ff       	callq  400dc0 <exit@plt>
  401d74:	8b 45 f8             	mov    -0x8(%rbp),%eax
  401d77:	89 c7                	mov    %eax,%edi
  401d79:	e8 42 ef ff ff       	callq  400cc0 <close@plt>
  401d7e:	85 c0                	test   %eax,%eax
  401d80:	74 16                	je     401d98 <send_msg_2+0x282>
  401d82:	48 8d 3d 42 05 00 00 	lea    0x542(%rip),%rdi        # 4022cb <_IO_stdin_used+0x3ab>
  401d89:	e8 a2 ee ff ff       	callq  400c30 <puts@plt>
  401d8e:	bf 08 00 00 00       	mov    $0x8,%edi
  401d93:	e8 28 f0 ff ff       	callq  400dc0 <exit@plt>
  401d98:	90                   	nop
  401d99:	c9                   	leaveq 
  401d9a:	c3                   	retq   

0000000000401d9b <explode_bomb>:
  401d9b:	55                   	push   %rbp
  401d9c:	48 89 e5             	mov    %rsp,%rbp
  401d9f:	48 8d 3d 3c 05 00 00 	lea    0x53c(%rip),%rdi        # 4022e2 <_IO_stdin_used+0x3c2>
  401da6:	e8 85 ee ff ff       	callq  400c30 <puts@plt>
  401dab:	48 8d 3d 39 05 00 00 	lea    0x539(%rip),%rdi        # 4022eb <_IO_stdin_used+0x3cb>
  401db2:	e8 79 ee ff ff       	callq  400c30 <puts@plt>
  401db7:	bf 00 00 00 00       	mov    $0x0,%edi
  401dbc:	e8 b2 f9 ff ff       	callq  401773 <send_msg>
  401dc1:	48 8d 3d 40 05 00 00 	lea    0x540(%rip),%rdi        # 402308 <_IO_stdin_used+0x3e8>
  401dc8:	e8 63 ee ff ff       	callq  400c30 <puts@plt>
  401dcd:	bf 08 00 00 00       	mov    $0x8,%edi
  401dd2:	e8 e9 ef ff ff       	callq  400dc0 <exit@plt>

0000000000401dd7 <phase_defused>:
  401dd7:	55                   	push   %rbp
  401dd8:	48 89 e5             	mov    %rsp,%rbp
  401ddb:	48 83 c4 80          	add    $0xffffffffffffff80,%rsp
  401ddf:	bf 01 00 00 00       	mov    $0x1,%edi
  401de4:	e8 8a f9 ff ff       	callq  401773 <send_msg>
  401de9:	8b 05 ed 17 20 00    	mov    0x2017ed(%rip),%eax        # 6035dc <num_input_strings>
  401def:	83 f8 03             	cmp    $0x3,%eax
  401df2:	0f 85 a5 00 00 00    	jne    401e9d <phase_defused+0xc6>
  401df8:	48 8d 7d 90          	lea    -0x70(%rbp),%rdi
  401dfc:	48 8d 75 94          	lea    -0x6c(%rbp),%rsi
  401e00:	48 8d 55 98          	lea    -0x68(%rbp),%rdx
  401e04:	48 8d 45 9c          	lea    -0x64(%rbp),%rax
  401e08:	48 83 ec 08          	sub    $0x8,%rsp
  401e0c:	48 8d 4d a0          	lea    -0x60(%rbp),%rcx
  401e10:	51                   	push   %rcx
  401e11:	48 8d 4d 88          	lea    -0x78(%rbp),%rcx
  401e15:	51                   	push   %rcx
  401e16:	48 8d 4d 8c          	lea    -0x74(%rbp),%rcx
  401e1a:	51                   	push   %rcx
  401e1b:	49 89 f9             	mov    %rdi,%r9
  401e1e:	49 89 f0             	mov    %rsi,%r8
  401e21:	48 89 d1             	mov    %rdx,%rcx
  401e24:	48 89 c2             	mov    %rax,%rdx
  401e27:	48 8d 35 fd 04 00 00 	lea    0x4fd(%rip),%rsi        # 40232b <_IO_stdin_used+0x40b>
  401e2e:	48 8d 3d 1b 18 20 00 	lea    0x20181b(%rip),%rdi        # 603650 <input_strings+0x50>
  401e35:	b8 00 00 00 00       	mov    $0x0,%eax
  401e3a:	e8 11 ef ff ff       	callq  400d50 <__isoc99_sscanf@plt>
  401e3f:	48 83 c4 20          	add    $0x20,%rsp
  401e43:	89 45 fc             	mov    %eax,-0x4(%rbp)
  401e46:	83 7d fc 07          	cmpl   $0x7,-0x4(%rbp)
  401e4a:	75 39                	jne    401e85 <phase_defused+0xae>
  401e4c:	48 8d 45 a0          	lea    -0x60(%rbp),%rax
  401e50:	48 8d 35 e9 04 00 00 	lea    0x4e9(%rip),%rsi        # 402340 <_IO_stdin_used+0x420>
  401e57:	48 89 c7             	mov    %rax,%rdi
  401e5a:	e8 03 f5 ff ff       	callq  401362 <strings_not_equal>
  401e5f:	85 c0                	test   %eax,%eax
  401e61:	75 22                	jne    401e85 <phase_defused+0xae>
  401e63:	48 8d 3d de 04 00 00 	lea    0x4de(%rip),%rdi        # 402348 <_IO_stdin_used+0x428>
  401e6a:	e8 c1 ed ff ff       	callq  400c30 <puts@plt>
  401e6f:	48 8d 3d fa 04 00 00 	lea    0x4fa(%rip),%rdi        # 402370 <_IO_stdin_used+0x450>
  401e76:	e8 b5 ed ff ff       	callq  400c30 <puts@plt>
  401e7b:	b8 00 00 00 00       	mov    $0x0,%eax
  401e80:	e8 2c f3 ff ff       	callq  4011b1 <secret_phase>
  401e85:	48 8d 3d 1c 05 00 00 	lea    0x51c(%rip),%rdi        # 4023a8 <_IO_stdin_used+0x488>
  401e8c:	e8 9f ed ff ff       	callq  400c30 <puts@plt>
  401e91:	48 8d 3d 40 05 00 00 	lea    0x540(%rip),%rdi        # 4023d8 <_IO_stdin_used+0x4b8>
  401e98:	e8 93 ed ff ff       	callq  400c30 <puts@plt>
  401e9d:	90                   	nop
  401e9e:	c9                   	leaveq 
  401e9f:	c3                   	retq   

0000000000401ea0 <__libc_csu_init>:
  401ea0:	41 57                	push   %r15
  401ea2:	41 56                	push   %r14
  401ea4:	41 89 ff             	mov    %edi,%r15d
  401ea7:	41 55                	push   %r13
  401ea9:	41 54                	push   %r12
  401eab:	4c 8d 25 56 0f 20 00 	lea    0x200f56(%rip),%r12        # 602e08 <__frame_dummy_init_array_entry>
  401eb2:	55                   	push   %rbp
  401eb3:	48 8d 2d 56 0f 20 00 	lea    0x200f56(%rip),%rbp        # 602e10 <__init_array_end>
  401eba:	53                   	push   %rbx
  401ebb:	49 89 f6             	mov    %rsi,%r14
  401ebe:	49 89 d5             	mov    %rdx,%r13
  401ec1:	4c 29 e5             	sub    %r12,%rbp
  401ec4:	48 83 ec 08          	sub    $0x8,%rsp
  401ec8:	48 c1 fd 03          	sar    $0x3,%rbp
  401ecc:	e8 07 ed ff ff       	callq  400bd8 <_init>
  401ed1:	48 85 ed             	test   %rbp,%rbp
  401ed4:	74 20                	je     401ef6 <__libc_csu_init+0x56>
  401ed6:	31 db                	xor    %ebx,%ebx
  401ed8:	0f 1f 84 00 00 00 00 	nopl   0x0(%rax,%rax,1)
  401edf:	00 
  401ee0:	4c 89 ea             	mov    %r13,%rdx
  401ee3:	4c 89 f6             	mov    %r14,%rsi
  401ee6:	44 89 ff             	mov    %r15d,%edi
  401ee9:	41 ff 14 dc          	callq  *(%r12,%rbx,8)
  401eed:	48 83 c3 01          	add    $0x1,%rbx
  401ef1:	48 39 dd             	cmp    %rbx,%rbp
  401ef4:	75 ea                	jne    401ee0 <__libc_csu_init+0x40>
  401ef6:	48 83 c4 08          	add    $0x8,%rsp
  401efa:	5b                   	pop    %rbx
  401efb:	5d                   	pop    %rbp
  401efc:	41 5c                	pop    %r12
  401efe:	41 5d                	pop    %r13
  401f00:	41 5e                	pop    %r14
  401f02:	41 5f                	pop    %r15
  401f04:	c3                   	retq   
  401f05:	90                   	nop
  401f06:	66 2e 0f 1f 84 00 00 	nopw   %cs:0x0(%rax,%rax,1)
  401f0d:	00 00 00 

0000000000401f10 <__libc_csu_fini>:
  401f10:	f3 c3                	repz retq 

Disassembly of section .fini:

0000000000401f14 <_fini>:
  401f14:	48 83 ec 08          	sub    $0x8,%rsp
  401f18:	48 83 c4 08          	add    $0x8,%rsp
  401f1c:	c3                   	retq   
